V3.5
p0
.VLALR
p0
.VAA72963C489F62E391C7D93746423457
p0
.(dp0
L0L
(dp1
V>
p2
L1L
sVBANG
p3
L19L
sV<
p4
L2L
sVGREATER_AND
p5
L4L
sVFOR
p6
L5L
sVCOPROC
p7
L21L
sVWORD
p8
L7L
sVIF
p9
L22L
sVGREATER_GREATER
p10
L23L
sVCASE
p11
L9L
sVLBRACE
p12
L35L
sVSELECT
p13
L24L
sV(
p14
L10L
sVARITH_CMD
p15
L46L
sVLESS_LESS_MINUS
p16
L12L
sVLESS_LESS_LESS
p17
L37L
sVFUNCTION
p18
L13L
sVNEWLINE
p19
L26L
sVAND_GREATER
p20
L52L
sVREDIR_WORD
p21
L47L
sVCOND_START
p22
L39L
sVTIME
p23
L48L
sVAND_GREATER_GREATER
p24
L51L
sVGREATER_BAR
p25
L18L
sVLESS_AND
p26
L29L
sVLESS_LESS
p27
L30L
sVNUMBER
p28
L32L
sVLESS_GREATER
p29
L31L
sVUNTIL
p30
L53L
sVWHILE
p31
L36L
ssL1L
(dp32
VWORD
p33
L55L
ssL2L
(dp34
VWORD
p35
L56L
ssL3L
(dp36
VNEWLINE
p37
L-163L
sV|
p38
L-163L
sV}
p39
L-163L
sV;
p40
L-163L
sVOR_OR
p41
L-163L
sVELIF
p42
L-163L
sVDONE
p43
L-163L
sVELSE
p44
L-163L
sVFI
p45
L-163L
sVTHEN
p46
L-163L
sVBAR_AND
p47
L-163L
sVSEMI_SEMI_AND
p48
L-163L
sVDO
p49
L-163L
sVESAC
p50
L-163L
sV)
p51
L-163L
sV&
p52
L-163L
sVSEMI_SEMI
p53
L-163L
sVSEMI_AND
p54
L-163L
sVAND_AND
p55
L-163L
ssL4L
(dp56
VWORD
p57
L58L
sV-
p58
L57L
sVNUMBER
p59
L59L
ssL5L
(dp60
VARITH_FOR_EXPRS
p61
L61L
sVWORD
p62
L60L
ssL6L
(dp63
g52
L-155L
sg37
L-155L
sg41
L-155L
sg40
L-155L
sg55
L-155L
ssL7L
(dp64
g2
L-51L
sg4
L-51L
sg39
L-51L
sg5
L-51L
sg40
L-51L
sg43
L-51L
sVWORD
p65
L-51L
sg38
L-51L
sg46
L-51L
sg10
L-51L
sg27
L-51L
sg14
L63L
sg51
L-51L
sg52
L-51L
sg53
L-51L
sg54
L-51L
sg16
L-51L
sg47
L-51L
sg17
L-51L
sg45
L-51L
sg37
L-51L
sg25
L-51L
sg21
L-51L
sg41
L-51L
sg42
L-51L
sV=
p66
L62L
sg48
L-51L
sg44
L-51L
sg49
L-51L
sg24
L-51L
sg20
L-51L
sg26
L-51L
sg50
L-51L
sg29
L-51L
sg55
L-51L
sg28
L-51L
ssL8L
(dp67
VNEWLINE
p68
L-61L
sg38
L-61L
sg39
L-61L
sg40
L-61L
sVOR_OR
p69
L-61L
sg42
L-61L
sg43
L-61L
sg44
L-61L
sg45
L-61L
sg46
L-61L
sVAND_AND
p70
L-61L
sg48
L-61L
sg49
L-61L
sg50
L-61L
sg51
L-61L
sg52
L-61L
sg53
L-61L
sg54
L-61L
sg47
L-61L
ssL9L
(dp71
VWORD
p72
L64L
ssL10L
(dp73
g2
L-146L
sg3
L-146L
sg4
L-146L
sg5
L-146L
sg6
L-146L
sg7
L-146L
sg8
L-146L
sg9
L-146L
sg10
L-146L
sg11
L-146L
sg12
L-146L
sg13
L-146L
sg14
L-146L
sg15
L-146L
sg16
L-146L
sg17
L-146L
sg18
L-146L
sVNEWLINE
p74
L-146L
sg20
L-146L
sg21
L-146L
sg22
L-146L
sg23
L-146L
sg24
L-146L
sg25
L-146L
sg26
L-146L
sg27
L-146L
sg28
L-146L
sg29
L-146L
sg30
L-146L
sg31
L-146L
ssL11L
(dp75
g2
L1L
sg3
L19L
sg4
L2L
sg5
L4L
sg40
L68L
sg7
L21L
sg8
L7L
sg9
L22L
sg10
L23L
sg11
L9L
sg12
L35L
sg13
L24L
sg14
L10L
sg15
L46L
sg16
L12L
sg17
L37L
sg6
L5L
sVNEWLINE
p76
L71L
sg20
L52L
sg21
L47L
sg22
L39L
sg23
L48L
sg24
L51L
sg25
L18L
sg26
L29L
sg27
L30L
sg28
L32L
sg29
L31L
sg18
L13L
sg30
L53L
sg31
L36L
ssL12L
(dp77
VWORD
p78
L72L
ssL13L
(dp79
VWORD
p80
L73L
ssL14L
(dp81
g2
L1L
sg3
L19L
sg4
L2L
sg5
L4L
sg6
L5L
sg7
L21L
sg8
L7L
sg9
L22L
sg10
L23L
sg11
L9L
sg12
L35L
sg13
L24L
sg14
L10L
sg15
L46L
sg16
L12L
sg17
L37L
sg18
L13L
sg19
L26L
sg20
L52L
sg21
L47L
sg22
L39L
sg23
L48L
sV$end
p82
L0L
sg24
L51L
sg25
L18L
sg26
L29L
sg27
L30L
sg28
L32L
sg29
L31L
sg30
L53L
sg31
L36L
ssL15L
(dp83
g2
L1L
sg38
L-59L
sg39
L-59L
sg5
L4L
sg40
L-59L
sg43
L-59L
sg26
L29L
sg4
L2L
sg46
L-59L
sg10
L23L
sg50
L-59L
sg51
L-59L
sg52
L-59L
sg53
L-59L
sg54
L-59L
sg16
L12L
sg47
L-59L
sg17
L37L
sg68
L-59L
sg20
L52L
sg21
L47L
sg69
L-59L
sg42
L-59L
sg48
L-59L
sg44
L-59L
sg49
L-59L
sg24
L51L
sg25
L18L
sg45
L-59L
sg27
L30L
sg29
L31L
sg70
L-59L
sVNUMBER
p84
L77L
ssL16L
(dp85
g68
L-62L
sg38
L-62L
sg39
L-62L
sg40
L-62L
sg69
L-62L
sg42
L-62L
sg43
L-62L
sg44
L-62L
sg45
L-62L
sg46
L-62L
sg70
L-62L
sg48
L-62L
sg49
L-62L
sg50
L-62L
sg51
L-62L
sg52
L-62L
sg53
L-62L
sg54
L-62L
sg47
L-62L
ssL17L
(dp86
g2
L-52L
sg4
L-52L
sg39
L-52L
sg5
L-52L
sg40
L-52L
sg43
L-52L
sg65
L-52L
sg38
L-52L
sg46
L-52L
sg10
L-52L
sg27
L-52L
sg51
L-52L
sg52
L-52L
sg53
L-52L
sg54
L-52L
sg16
L-52L
sg47
L-52L
sg17
L-52L
sg45
L-52L
sg37
L-52L
sg25
L-52L
sg21
L-52L
sg41
L-52L
sg42
L-52L
sg48
L-52L
sg44
L-52L
sg49
L-52L
sg24
L-52L
sg20
L-52L
sg26
L-52L
sg50
L-52L
sg29
L-52L
sg55
L-52L
sg28
L-52L
ssL18L
(dp87
VWORD
p88
L78L
ssL19L
(dp89
g2
L1L
sg3
L19L
sg4
L2L
sg5
L4L
sg40
L68L
sg7
L21L
sg8
L7L
sg9
L22L
sg10
L23L
sg11
L9L
sg12
L35L
sg13
L24L
sg14
L10L
sg15
L46L
sg16
L12L
sg17
L37L
sg6
L5L
sg76
L71L
sg20
L52L
sg21
L47L
sg22
L39L
sg23
L48L
sg24
L51L
sg25
L18L
sg26
L29L
sg27
L30L
sg28
L32L
sg29
L31L
sg18
L13L
sg30
L53L
sg31
L36L
ssL20L
(dp90
g2
L-73L
sg4
L-73L
sg39
L-73L
sg5
L-73L
sg40
L-73L
sg43
L-73L
sg38
L-73L
sg46
L-73L
sg10
L-73L
sg27
L-73L
sg51
L-73L
sg52
L-73L
sg53
L-73L
sg54
L-73L
sg16
L-73L
sg47
L-73L
sg17
L-73L
sg45
L-73L
sg68
L-73L
sg25
L-73L
sg21
L-73L
sg69
L-73L
sg42
L-73L
sg48
L-73L
sg44
L-73L
sg49
L-73L
sg24
L-73L
sg20
L-73L
sg26
L-73L
sg50
L-73L
sg29
L-73L
sg70
L-73L
sg84
L-73L
ssL21L
(dp91
g2
L1L
sg4
L2L
sg5
L4L
sg6
L5L
sVWORD
p92
L81L
sg9
L22L
sg10
L23L
sg27
L30L
sg12
L35L
sg13
L24L
sg14
L10L
sg15
L46L
sg16
L12L
sg17
L37L
sg20
L52L
sg21
L47L
sg22
L39L
sg24
L51L
sg25
L18L
sg26
L29L
sg11
L9L
sg30
L53L
sg29
L31L
sg28
L32L
sg31
L36L
ssL22L
(dp93
g2
L-146L
sg3
L-146L
sg4
L-146L
sg5
L-146L
sg6
L-146L
sg7
L-146L
sg8
L-146L
sg9
L-146L
sg10
L-146L
sg11
L-146L
sg12
L-146L
sg13
L-146L
sg14
L-146L
sg15
L-146L
sg16
L-146L
sg17
L-146L
sg18
L-146L
sg74
L-146L
sg20
L-146L
sg21
L-146L
sg22
L-146L
sg23
L-146L
sg24
L-146L
sg25
L-146L
sg26
L-146L
sg27
L-146L
sg28
L-146L
sg29
L-146L
sg30
L-146L
sg31
L-146L
ssL23L
(dp94
VWORD
p95
L85L
ssL24L
(dp96
VWORD
p97
L86L
ssL25L
(dp98
g2
L-63L
sg4
L-63L
sg39
L-63L
sg5
L-63L
sg40
L-63L
sg43
L-63L
sg38
L-63L
sg46
L-63L
sg10
L-63L
sg27
L-63L
sg51
L-63L
sg52
L-63L
sg53
L-63L
sg54
L-63L
sg16
L-63L
sg47
L-63L
sg17
L-63L
sg45
L-63L
sg68
L-63L
sg25
L-63L
sg21
L-63L
sg69
L-63L
sg42
L-63L
sg48
L-63L
sg44
L-63L
sg49
L-63L
sg24
L-63L
sg20
L-63L
sg26
L-63L
sg50
L-63L
sg29
L-63L
sg70
L-63L
sg84
L-63L
ssL26L
(dp99
g2
L-4L
sg3
L-4L
sg4
L-4L
sg5
L-4L
sg6
L-4L
sg7
L-4L
sg8
L-4L
sg9
L-4L
sg10
L-4L
sg11
L-4L
sg12
L-4L
sg13
L-4L
sg14
L-4L
sg15
L-4L
sg16
L-4L
sg17
L-4L
sg18
L-4L
sg19
L-4L
sg20
L-4L
sg21
L-4L
sg22
L-4L
sg23
L-4L
sV$end
p100
L-4L
sg24
L-4L
sg25
L-4L
sg26
L-4L
sg27
L-4L
sg28
L-4L
sg29
L-4L
sg30
L-4L
sg31
L-4L
ssL27L
(dp101
g2
L-71L
sg4
L-71L
sg39
L-71L
sg5
L-71L
sg40
L-71L
sg43
L-71L
sg38
L-71L
sg46
L-71L
sg10
L-71L
sg27
L-71L
sg51
L-71L
sg52
L-71L
sg53
L-71L
sg54
L-71L
sg16
L-71L
sg47
L-71L
sg17
L-71L
sg45
L-71L
sg68
L-71L
sg25
L-71L
sg21
L-71L
sg69
L-71L
sg42
L-71L
sg48
L-71L
sg44
L-71L
sg49
L-71L
sg24
L-71L
sg20
L-71L
sg26
L-71L
sg50
L-71L
sg29
L-71L
sg70
L-71L
sg84
L-71L
ssL28L
(dp102
g2
L-67L
sg4
L-67L
sg39
L-67L
sg5
L-67L
sg40
L-67L
sg43
L-67L
sg38
L-67L
sg46
L-67L
sg10
L-67L
sg27
L-67L
sg51
L-67L
sg52
L-67L
sg53
L-67L
sg54
L-67L
sg16
L-67L
sg47
L-67L
sg17
L-67L
sg45
L-67L
sg68
L-67L
sg25
L-67L
sg21
L-67L
sg69
L-67L
sg42
L-67L
sg48
L-67L
sg44
L-67L
sg49
L-67L
sg24
L-67L
sg20
L-67L
sg26
L-67L
sg50
L-67L
sg29
L-67L
sg70
L-67L
sg84
L-67L
ssL29L
(dp103
VWORD
p104
L87L
sg58
L88L
sVNUMBER
p105
L89L
ssL30L
(dp106
VWORD
p107
L90L
ssL31L
(dp108
VWORD
p109
L91L
ssL32L
(dp110
g2
L92L
sg4
L93L
sg39
L-174L
sg5
L94L
sg40
L-174L
sg43
L-174L
sg65
L-174L
sg38
L-174L
sg46
L-174L
sg10
L96L
sg27
L98L
sg51
L-174L
sg52
L-174L
sg53
L-174L
sg54
L-174L
sg16
L100L
sg47
L-174L
sg17
L101L
sg45
L-174L
sg37
L-174L
sg25
L95L
sg21
L-174L
sg41
L-174L
sg42
L-174L
sg48
L-174L
sg44
L-174L
sg49
L-174L
sg24
L-174L
sg20
L-174L
sg26
L97L
sg50
L-174L
sg29
L99L
sg55
L-174L
sg28
L-174L
ssL33L
(dp111
g37
L-156L
sg38
L102L
sg39
L-156L
sg40
L-156L
sg43
L-156L
sg42
L-156L
sg41
L-156L
sg44
L-156L
sg45
L-156L
sg46
L-156L
sg47
L103L
sg48
L-156L
sg49
L-156L
sg50
L-156L
sg51
L-156L
sg52
L-156L
sg53
L-156L
sg54
L-156L
sg55
L-156L
ssL34L
(dp112
g2
L-72L
sg4
L-72L
sg39
L-72L
sg5
L-72L
sg40
L-72L
sg43
L-72L
sg38
L-72L
sg46
L-72L
sg10
L-72L
sg27
L-72L
sg51
L-72L
sg52
L-72L
sg53
L-72L
sg54
L-72L
sg16
L-72L
sg47
L-72L
sg17
L-72L
sg45
L-72L
sg68
L-72L
sg25
L-72L
sg21
L-72L
sg69
L-72L
sg42
L-72L
sg48
L-72L
sg44
L-72L
sg49
L-72L
sg24
L-72L
sg20
L-72L
sg26
L-72L
sg50
L-72L
sg29
L-72L
sg70
L-72L
sg84
L-72L
ssL35L
(dp113
g2
L-146L
sg3
L-146L
sg4
L-146L
sg5
L-146L
sg6
L-146L
sg7
L-146L
sg8
L-146L
sg9
L-146L
sg10
L-146L
sg11
L-146L
sg12
L-146L
sg13
L-146L
sg14
L-146L
sg15
L-146L
sg16
L-146L
sg17
L-146L
sg18
L-146L
sg74
L-146L
sg20
L-146L
sg21
L-146L
sg22
L-146L
sg23
L-146L
sg24
L-146L
sg25
L-146L
sg26
L-146L
sg27
L-146L
sg28
L-146L
sg29
L-146L
sg30
L-146L
sg31
L-146L
ssL36L
(dp114
g2
L-146L
sg3
L-146L
sg4
L-146L
sg5
L-146L
sg6
L-146L
sg7
L-146L
sg8
L-146L
sg9
L-146L
sg10
L-146L
sg11
L-146L
sg12
L-146L
sg13
L-146L
sg14
L-146L
sg15
L-146L
sg16
L-146L
sg17
L-146L
sg18
L-146L
sg74
L-146L
sg20
L-146L
sg21
L-146L
sg22
L-146L
sg23
L-146L
sg24
L-146L
sg25
L-146L
sg26
L-146L
sg27
L-146L
sg28
L-146L
sg29
L-146L
sg30
L-146L
sg31
L-146L
ssL37L
(dp115
VWORD
p116
L106L
ssL38L
(dp117
g37
L-148L
sg52
L109L
sg41
L108L
sg40
L107L
sg55
L110L
ssL39L
(dp118
VCOND_CMD
p119
L111L
ssL40L
(dp120
g2
L-69L
sg4
L-69L
sg39
L-69L
sg5
L-69L
sg40
L-69L
sg43
L-69L
sg38
L-69L
sg46
L-69L
sg10
L-69L
sg27
L-69L
sg51
L-69L
sg52
L-69L
sg53
L-69L
sg54
L-69L
sg16
L-69L
sg47
L-69L
sg17
L-69L
sg45
L-69L
sg68
L-69L
sg25
L-69L
sg21
L-69L
sg69
L-69L
sg42
L-69L
sg48
L-69L
sg44
L-69L
sg49
L-69L
sg24
L-69L
sg20
L-69L
sg26
L-69L
sg50
L-69L
sg29
L-69L
sg70
L-69L
sg84
L-69L
ssL41L
(dp121
g2
L-70L
sg4
L-70L
sg39
L-70L
sg5
L-70L
sg40
L-70L
sg43
L-70L
sg38
L-70L
sg46
L-70L
sg10
L-70L
sg27
L-70L
sg51
L-70L
sg52
L-70L
sg53
L-70L
sg54
L-70L
sg16
L-70L
sg47
L-70L
sg17
L-70L
sg45
L-70L
sg68
L-70L
sg25
L-70L
sg21
L-70L
sg69
L-70L
sg42
L-70L
sg48
L-70L
sg44
L-70L
sg49
L-70L
sg24
L-70L
sg20
L-70L
sg26
L-70L
sg50
L-70L
sg29
L-70L
sg70
L-70L
sg84
L-70L
ssL42L
(dp122
g2
L-68L
sg4
L-68L
sg39
L-68L
sg5
L-68L
sg40
L-68L
sg43
L-68L
sg38
L-68L
sg46
L-68L
sg10
L-68L
sg27
L-68L
sg51
L-68L
sg52
L-68L
sg53
L-68L
sg54
L-68L
sg16
L-68L
sg47
L-68L
sg17
L-68L
sg45
L-68L
sg68
L-68L
sg25
L-68L
sg21
L-68L
sg69
L-68L
sg42
L-68L
sg48
L-68L
sg44
L-68L
sg49
L-68L
sg24
L-68L
sg20
L-68L
sg26
L-68L
sg50
L-68L
sg29
L-68L
sg70
L-68L
sg84
L-68L
ssL43L
(dp123
g37
L112L
ssL44L
(dp124
g2
L-56L
sg4
L-56L
sg39
L-56L
sg5
L-56L
sg40
L-56L
sg43
L-56L
sg65
L-56L
sg38
L-56L
sg46
L-56L
sg10
L-56L
sg27
L-56L
sg51
L-56L
sg52
L-56L
sg53
L-56L
sg54
L-56L
sg16
L-56L
sg47
L-56L
sg17
L-56L
sg45
L-56L
sg37
L-56L
sg25
L-56L
sg21
L-56L
sg41
L-56L
sg42
L-56L
sg48
L-56L
sg44
L-56L
sg49
L-56L
sg24
L-56L
sg20
L-56L
sg26
L-56L
sg50
L-56L
sg29
L-56L
sg55
L-56L
sg28
L-56L
ssL45L
(dp125
g2
L-175L
sg38
L-176L
sg39
L-176L
sg5
L-175L
sg40
L-176L
sg43
L-176L
sg26
L-175L
sg65
L-175L
sg4
L-175L
sg46
L-176L
sg10
L-175L
sg50
L-176L
sg51
L-176L
sg52
L-176L
sg53
L-176L
sg54
L-176L
sg16
L-175L
sg47
L-176L
sg17
L-175L
sg37
L-176L
sg20
L-175L
sg21
L-175L
sg41
L-176L
sg42
L-176L
sg48
L-176L
sg44
L-176L
sg49
L-176L
sg24
L-175L
sg25
L-175L
sg45
L-176L
sg27
L-175L
sg29
L-175L
sg55
L-176L
sg28
L-175L
ssL46L
(dp126
g2
L-112L
sg4
L-112L
sg39
L-112L
sg5
L-112L
sg40
L-112L
sg43
L-112L
sg38
L-112L
sg46
L-112L
sg10
L-112L
sg27
L-112L
sg51
L-112L
sg52
L-112L
sg53
L-112L
sg54
L-112L
sg16
L-112L
sg47
L-112L
sg17
L-112L
sg45
L-112L
sg68
L-112L
sg25
L-112L
sg21
L-112L
sg69
L-112L
sg42
L-112L
sg48
L-112L
sg44
L-112L
sg49
L-112L
sg24
L-112L
sg20
L-112L
sg26
L-112L
sg50
L-112L
sg29
L-112L
sg70
L-112L
sg84
L-112L
ssL47L
(dp127
g2
L116L
sVGREATER_GREATER
p128
L120L
sg4
L118L
sVLESS_LESS
p129
L122L
sVGREATER_AND
p130
L117L
sVLESS_GREATER
p131
L123L
sVGREATER_BAR
p132
L119L
sVLESS_LESS_MINUS
p133
L124L
sVLESS_AND
p134
L121L
sVLESS_LESS_LESS
p135
L125L
ssL48L
(dp136
g2
L-164L
sg3
L-164L
sg4
L-164L
sg5
L-164L
sg40
L-164L
sg7
L-164L
sg8
L-164L
sg9
L-164L
sg10
L-164L
sg11
L-164L
sg12
L-164L
sg13
L-164L
sg14
L-164L
sg15
L-164L
sg16
L-164L
sg17
L-164L
sg6
L-164L
sg76
L-164L
sg20
L-164L
sg21
L-164L
sg22
L-164L
sg23
L-164L
sVTIMEOPT
p137
L126L
sg24
L-164L
sg25
L-164L
sg26
L-164L
sg27
L-164L
sg28
L-164L
sg29
L-164L
sg18
L-164L
sg30
L-164L
sg31
L-164L
ssL49L
(dp138
g2
L-64L
sg4
L-64L
sg39
L-64L
sg5
L-64L
sg40
L-64L
sg43
L-64L
sg38
L-64L
sg46
L-64L
sg10
L-64L
sg27
L-64L
sg51
L-64L
sg52
L-64L
sg53
L-64L
sg54
L-64L
sg16
L-64L
sg47
L-64L
sg17
L-64L
sg45
L-64L
sg68
L-64L
sg25
L-64L
sg21
L-64L
sg69
L-64L
sg42
L-64L
sg48
L-64L
sg44
L-64L
sg49
L-64L
sg24
L-64L
sg20
L-64L
sg26
L-64L
sg50
L-64L
sg29
L-64L
sg70
L-64L
sg84
L-64L
ssL50L
(dp139
g2
L-53L
sg4
L-53L
sg39
L-53L
sg5
L-53L
sg40
L-53L
sg43
L-53L
sg65
L-53L
sg38
L-53L
sg46
L-53L
sg10
L-53L
sg27
L-53L
sg51
L-53L
sg52
L-53L
sg53
L-53L
sg54
L-53L
sg16
L-53L
sg47
L-53L
sg17
L-53L
sg45
L-53L
sg37
L-53L
sg25
L-53L
sg21
L-53L
sg41
L-53L
sg42
L-53L
sg48
L-53L
sg44
L-53L
sg49
L-53L
sg24
L-53L
sg20
L-53L
sg26
L-53L
sg50
L-53L
sg29
L-53L
sg55
L-53L
sg28
L-53L
ssL51L
(dp140
VWORD
p141
L127L
ssL52L
(dp142
VWORD
p143
L128L
ssL53L
(dp144
g2
L-146L
sg3
L-146L
sg4
L-146L
sg5
L-146L
sg6
L-146L
sg7
L-146L
sg8
L-146L
sg9
L-146L
sg10
L-146L
sg11
L-146L
sg12
L-146L
sg13
L-146L
sg14
L-146L
sg15
L-146L
sg16
L-146L
sg17
L-146L
sg18
L-146L
sg74
L-146L
sg20
L-146L
sg21
L-146L
sg22
L-146L
sg23
L-146L
sg24
L-146L
sg25
L-146L
sg26
L-146L
sg27
L-146L
sg28
L-146L
sg29
L-146L
sg30
L-146L
sg31
L-146L
ssL54L
(dp145
g2
L-1L
sg3
L-1L
sg4
L-1L
sg5
L-1L
sg6
L-1L
sg7
L-1L
sg8
L-1L
sg9
L-1L
sg10
L-1L
sg11
L-1L
sg12
L-1L
sg13
L-1L
sg14
L-1L
sg15
L-1L
sg16
L-1L
sg17
L-1L
sg18
L-1L
sg19
L-1L
sg20
L-1L
sg21
L-1L
sg22
L-1L
sg23
L-1L
sg100
L-1L
sg24
L-1L
sg25
L-1L
sg26
L-1L
sg27
L-1L
sg28
L-1L
sg29
L-1L
sg30
L-1L
sg31
L-1L
ssL55L
(dp146
g2
L-7L
sg4
L-7L
sg39
L-7L
sg5
L-7L
sg40
L-7L
sg43
L-7L
sg65
L-7L
sg38
L-7L
sg46
L-7L
sg10
L-7L
sg27
L-7L
sg51
L-7L
sg52
L-7L
sg53
L-7L
sg54
L-7L
sg16
L-7L
sg47
L-7L
sg17
L-7L
sg45
L-7L
sg68
L-7L
sg25
L-7L
sg21
L-7L
sg69
L-7L
sg42
L-7L
sg48
L-7L
sg44
L-7L
sg49
L-7L
sg24
L-7L
sg20
L-7L
sg26
L-7L
sg50
L-7L
sg29
L-7L
sg70
L-7L
sg28
L-7L
ssL56L
(dp147
g2
L-8L
sg4
L-8L
sg39
L-8L
sg5
L-8L
sg40
L-8L
sg43
L-8L
sg65
L-8L
sg38
L-8L
sg46
L-8L
sg10
L-8L
sg27
L-8L
sg51
L-8L
sg52
L-8L
sg53
L-8L
sg54
L-8L
sg16
L-8L
sg47
L-8L
sg17
L-8L
sg45
L-8L
sg68
L-8L
sg25
L-8L
sg21
L-8L
sg69
L-8L
sg42
L-8L
sg48
L-8L
sg44
L-8L
sg49
L-8L
sg24
L-8L
sg20
L-8L
sg26
L-8L
sg50
L-8L
sg29
L-8L
sg70
L-8L
sg28
L-8L
ssL57L
(dp148
g2
L-43L
sg4
L-43L
sg39
L-43L
sg5
L-43L
sg40
L-43L
sg43
L-43L
sg65
L-43L
sg38
L-43L
sg46
L-43L
sg10
L-43L
sg27
L-43L
sg51
L-43L
sg52
L-43L
sg53
L-43L
sg54
L-43L
sg16
L-43L
sg47
L-43L
sg17
L-43L
sg45
L-43L
sg68
L-43L
sg25
L-43L
sg21
L-43L
sg69
L-43L
sg42
L-43L
sg48
L-43L
sg44
L-43L
sg49
L-43L
sg24
L-43L
sg20
L-43L
sg26
L-43L
sg50
L-43L
sg29
L-43L
sg70
L-43L
sg28
L-43L
ssL58L
(dp149
g2
L-40L
sg4
L-40L
sg39
L-40L
sg5
L-40L
sg40
L-40L
sg43
L-40L
sg65
L-40L
sg38
L-40L
sg46
L-40L
sg10
L-40L
sg27
L-40L
sg51
L-40L
sg52
L-40L
sg53
L-40L
sg54
L-40L
sg16
L-40L
sg47
L-40L
sg17
L-40L
sg45
L-40L
sg68
L-40L
sg25
L-40L
sg21
L-40L
sg69
L-40L
sg42
L-40L
sg48
L-40L
sg44
L-40L
sg49
L-40L
sg24
L-40L
sg20
L-40L
sg26
L-40L
sg50
L-40L
sg29
L-40L
sg70
L-40L
sg28
L-40L
ssL59L
(dp150
g2
L-34L
sg4
L-34L
sg39
L-34L
sg5
L-34L
sg40
L-34L
sg43
L-34L
sg65
L-34L
sg38
L-34L
sg46
L-34L
sg10
L-34L
sg27
L-34L
sg51
L-34L
sg52
L-34L
sg53
L-34L
sg54
L-34L
sg16
L-34L
sg47
L-34L
sg17
L-34L
sg45
L-34L
sg68
L-34L
sg25
L-34L
sg21
L-34L
sg69
L-34L
sg42
L-34L
sg48
L-34L
sg44
L-34L
sg49
L-34L
sg24
L-34L
sg20
L-34L
sg26
L-34L
sg50
L-34L
sg29
L-34L
sg70
L-34L
sg28
L-34L
ssL60L
(dp151
VIN
p152
L-146L
sg74
L-146L
sVDO
p153
L-146L
sVLBRACE
p154
L-146L
sg40
L131L
ssL61L
(dp155
g76
L71L
sVDO
p156
L133L
sVLBRACE
p157
L134L
sg40
L68L
ssL62L
(dp158
VWORD
p159
L-172L
sg14
L-172L
sVNUMBER
p160
L136L
ssL63L
(dp161
g51
L137L
ssL64L
(dp162
VIN
p163
L-146L
sg74
L-146L
ssL65L
(dp164
g2
L1L
sg3
L19L
sg4
L2L
sg5
L4L
sg6
L5L
sg7
L21L
sg8
L7L
sg9
L22L
sg10
L23L
sg11
L9L
sg12
L35L
sg13
L24L
sg14
L10L
sg15
L46L
sg16
L12L
sg17
L37L
sg18
L13L
sg74
L140L
sg20
L52L
sg21
L47L
sg22
L39L
sg23
L48L
sg24
L51L
sg25
L18L
sg26
L29L
sg27
L30L
sg28
L32L
sg29
L31L
sg30
L53L
sg31
L36L
ssL66L
(dp165
g51
L143L
ssL67L
(dp166
g39
L-132L
sVDONE
p167
L-132L
sg42
L-132L
sg48
L-132L
sVELSE
p168
L-132L
sVDO
p169
L-132L
sg46
L-132L
sVFI
p170
L-132L
sg50
L-132L
sg51
L-132L
sg53
L-132L
sg54
L-132L
ssL68L
(dp171
g74
L-145L
sg39
L-145L
sg40
L-145L
sg41
L-145L
sg42
L-145L
sg43
L-145L
sg44
L-145L
sg45
L-145L
sg46
L-145L
sg48
L-145L
sVDO
p172
L-145L
sg50
L-145L
sVLBRACE
p173
L-145L
sg51
L-145L
sg52
L-145L
sg53
L-145L
sg54
L-145L
sg55
L-145L
ssL69L
(dp174
g37
L-158L
sg39
L-158L
sg40
L-158L
sg43
L-158L
sg42
L-158L
sg41
L-158L
sg44
L-158L
sg45
L-158L
sg46
L-158L
sg48
L-158L
sg49
L-158L
sg50
L-158L
sg51
L-158L
sg52
L-158L
sg53
L-158L
sg54
L-158L
sg55
L-158L
ssL70L
(dp175
g37
L-159L
sg39
L-159L
sg40
L-159L
sg43
L-159L
sg42
L-159L
sg41
L-159L
sg44
L-159L
sg45
L-159L
sg46
L-159L
sg48
L-159L
sg49
L-159L
sg50
L-159L
sg51
L-159L
sg52
L-159L
sg53
L-159L
sg54
L-159L
sg55
L-159L
ssL71L
(dp176
g74
L-144L
sg39
L-144L
sg40
L-144L
sg41
L-144L
sg42
L-144L
sg43
L-144L
sg44
L-144L
sg45
L-144L
sg46
L-144L
sg48
L-144L
sg172
L-144L
sg50
L-144L
sg173
L-144L
sg51
L-144L
sg52
L-144L
sg53
L-144L
sg54
L-144L
sg55
L-144L
ssL72L
(dp177
g2
L-25L
sg4
L-25L
sg39
L-25L
sg5
L-25L
sg40
L-25L
sg43
L-25L
sg65
L-25L
sg38
L-25L
sg46
L-25L
sg10
L-25L
sg27
L-25L
sg51
L-25L
sg52
L-25L
sg53
L-25L
sg54
L-25L
sg16
L-25L
sg47
L-25L
sg17
L-25L
sg45
L-25L
sg68
L-25L
sg25
L-25L
sg21
L-25L
sg69
L-25L
sg42
L-25L
sg48
L-25L
sg44
L-25L
sg49
L-25L
sg24
L-25L
sg20
L-25L
sg26
L-25L
sg50
L-25L
sg29
L-25L
sg70
L-25L
sg28
L-25L
ssL73L
(dp178
g74
L-146L
sg9
L-146L
sg13
L-146L
sg11
L-146L
sg12
L-146L
sg31
L-146L
sg14
L144L
sg15
L-146L
sg22
L-146L
sg30
L-146L
sg6
L-146L
ssL74L
(dp179
g2
L-2L
sg3
L-2L
sg4
L-2L
sg5
L-2L
sg6
L-2L
sg7
L-2L
sg8
L-2L
sg9
L-2L
sg10
L-2L
sg11
L-2L
sg12
L-2L
sg13
L-2L
sg14
L-2L
sg15
L-2L
sg16
L-2L
sg17
L-2L
sg18
L-2L
sg19
L-2L
sg20
L-2L
sg21
L-2L
sg22
L-2L
sg23
L-2L
sg100
L-2L
sg24
L-2L
sg25
L-2L
sg26
L-2L
sg27
L-2L
sg28
L-2L
sg29
L-2L
sg30
L-2L
sg31
L-2L
ssL75L
(dp180
g2
L-54L
sg4
L-54L
sg39
L-54L
sg5
L-54L
sg40
L-54L
sg43
L-54L
sg38
L-54L
sg46
L-54L
sg10
L-54L
sg27
L-54L
sg51
L-54L
sg52
L-54L
sg53
L-54L
sg54
L-54L
sg16
L-54L
sg47
L-54L
sg17
L-54L
sg45
L-54L
sg37
L-54L
sg25
L-54L
sg21
L-54L
sg41
L-54L
sg42
L-54L
sg48
L-54L
sg44
L-54L
sg49
L-54L
sg24
L-54L
sg20
L-54L
sg26
L-54L
sg50
L-54L
sg29
L-54L
sg55
L-54L
sg84
L-54L
ssL76L
(dp181
g2
L1L
sg38
L-60L
sg39
L-60L
sg5
L4L
sg40
L-60L
sg43
L-60L
sg26
L29L
sg4
L2L
sg46
L-60L
sg10
L23L
sg50
L-60L
sg51
L-60L
sg52
L-60L
sg53
L-60L
sg54
L-60L
sg16
L12L
sg47
L-60L
sg17
L37L
sg68
L-60L
sg20
L52L
sg21
L47L
sg69
L-60L
sg42
L-60L
sg48
L-60L
sg44
L-60L
sg49
L-60L
sg24
L51L
sg25
L18L
sg45
L-60L
sg27
L30L
sg29
L31L
sg70
L-60L
sg84
L77L
ssL77L
(dp182
g2
L92L
sVGREATER_GREATER
p183
L96L
sg4
L93L
sVLESS_LESS
p184
L98L
sVGREATER_AND
p185
L94L
sVLESS_GREATER
p186
L99L
sVGREATER_BAR
p187
L95L
sVLESS_LESS_MINUS
p188
L100L
sVLESS_AND
p189
L97L
sVLESS_LESS_LESS
p190
L101L
ssL78L
(dp191
g2
L-16L
sg4
L-16L
sg39
L-16L
sg5
L-16L
sg40
L-16L
sg43
L-16L
sg65
L-16L
sg38
L-16L
sg46
L-16L
sg10
L-16L
sg27
L-16L
sg51
L-16L
sg52
L-16L
sg53
L-16L
sg54
L-16L
sg16
L-16L
sg47
L-16L
sg17
L-16L
sg45
L-16L
sg68
L-16L
sg25
L-16L
sg21
L-16L
sg69
L-16L
sg42
L-16L
sg48
L-16L
sg44
L-16L
sg49
L-16L
sg24
L-16L
sg20
L-16L
sg26
L-16L
sg50
L-16L
sg29
L-16L
sg70
L-16L
sg28
L-16L
ssL79L
(dp192
g37
L-157L
sg39
L-157L
sg40
L-157L
sg43
L-157L
sg42
L-157L
sg41
L-157L
sg44
L-157L
sg45
L-157L
sg46
L-157L
sg48
L-157L
sg49
L-157L
sg50
L-157L
sg51
L-157L
sg52
L-157L
sg53
L-157L
sg54
L-157L
sg55
L-157L
ssL80L
(dp193
g37
L-160L
sg39
L-160L
sg40
L-160L
sg43
L-160L
sg42
L-160L
sg41
L-160L
sg44
L-160L
sg45
L-160L
sg46
L-160L
sg48
L-160L
sg49
L-160L
sg50
L-160L
sg51
L-160L
sg52
L-160L
sg53
L-160L
sg54
L-160L
sg55
L-160L
ssL81L
(dp194
g2
L-51L
sg4
L-51L
sg66
L62L
sg5
L-51L
sg40
L-51L
sg43
L-51L
sg65
L-51L
sg11
L9L
sg12
L35L
sg31
L36L
sg14
L10L
sg51
L-51L
sg52
L-51L
sg53
L-51L
sg16
L-51L
sg17
L-51L
sg6
L5L
sg22
L39L
sg41
L-51L
sg42
L-51L
sg49
L-51L
sg25
L-51L
sg45
L-51L
sg38
L-51L
sg39
L-51L
sg46
L-51L
sg9
L22L
sg10
L-51L
sg50
L-51L
sg13
L24L
sg15
L46L
sg54
L-51L
sg47
L-51L
sg37
L-51L
sg21
L-51L
sg48
L-51L
sg44
L-51L
sg24
L-51L
sg20
L-51L
sg26
L-51L
sg27
L-51L
sg28
L-51L
sg29
L-51L
sg55
L-51L
sg30
L53L
ssL82L
(dp195
g2
L-175L
sg38
L-107L
sg39
L-107L
sg5
L-175L
sg40
L-107L
sg43
L-107L
sg26
L-175L
sg65
L-175L
sg4
L-175L
sg46
L-107L
sg10
L-175L
sg50
L-107L
sg51
L-107L
sg52
L-107L
sg53
L-107L
sg54
L-107L
sg16
L-175L
sg47
L-107L
sg17
L-175L
sg68
L-107L
sg20
L-175L
sg21
L-175L
sg69
L-107L
sg42
L-107L
sg48
L-107L
sg44
L-107L
sg49
L-107L
sg24
L-175L
sg25
L-175L
sg45
L-107L
sg27
L-175L
sg29
L-175L
sg70
L-107L
sg28
L-175L
ssL83L
(dp196
g2
L1L
sg38
L-103L
sg39
L-103L
sg5
L4L
sg40
L-103L
sg43
L-103L
sg26
L29L
sg4
L2L
sg46
L-103L
sg10
L23L
sg50
L-103L
sg51
L-103L
sg52
L-103L
sg53
L-103L
sg54
L-103L
sg16
L12L
sg47
L-103L
sg17
L37L
sg68
L-103L
sg20
L52L
sg21
L47L
sg69
L-103L
sg42
L-103L
sg48
L-103L
sg44
L-103L
sg49
L-103L
sg24
L51L
sg25
L18L
sg45
L-103L
sg27
L30L
sg29
L31L
sg70
L-103L
sg84
L77L
ssL84L
(dp197
g46
L149L
ssL85L
(dp198
g2
L-13L
sg4
L-13L
sg39
L-13L
sg5
L-13L
sg40
L-13L
sg43
L-13L
sg65
L-13L
sg38
L-13L
sg46
L-13L
sg10
L-13L
sg27
L-13L
sg51
L-13L
sg52
L-13L
sg53
L-13L
sg54
L-13L
sg16
L-13L
sg47
L-13L
sg17
L-13L
sg45
L-13L
sg68
L-13L
sg25
L-13L
sg21
L-13L
sg69
L-13L
sg42
L-13L
sg48
L-13L
sg44
L-13L
sg49
L-13L
sg24
L-13L
sg20
L-13L
sg26
L-13L
sg50
L-13L
sg29
L-13L
sg70
L-13L
sg28
L-13L
ssL86L
(dp199
VIN
p200
L-146L
sg74
L-146L
sVDO
p201
L-146L
sVLBRACE
p202
L-146L
sg40
L150L
ssL87L
(dp203
g2
L-37L
sg4
L-37L
sg39
L-37L
sg5
L-37L
sg40
L-37L
sg43
L-37L
sg65
L-37L
sg38
L-37L
sg46
L-37L
sg10
L-37L
sg27
L-37L
sg51
L-37L
sg52
L-37L
sg53
L-37L
sg54
L-37L
sg16
L-37L
sg47
L-37L
sg17
L-37L
sg45
L-37L
sg68
L-37L
sg25
L-37L
sg21
L-37L
sg69
L-37L
sg42
L-37L
sg48
L-37L
sg44
L-37L
sg49
L-37L
sg24
L-37L
sg20
L-37L
sg26
L-37L
sg50
L-37L
sg29
L-37L
sg70
L-37L
sg28
L-37L
ssL88L
(dp204
g2
L-46L
sg4
L-46L
sg39
L-46L
sg5
L-46L
sg40
L-46L
sg43
L-46L
sg65
L-46L
sg38
L-46L
sg46
L-46L
sg10
L-46L
sg27
L-46L
sg51
L-46L
sg52
L-46L
sg53
L-46L
sg54
L-46L
sg16
L-46L
sg47
L-46L
sg17
L-46L
sg45
L-46L
sg68
L-46L
sg25
L-46L
sg21
L-46L
sg69
L-46L
sg42
L-46L
sg48
L-46L
sg44
L-46L
sg49
L-46L
sg24
L-46L
sg20
L-46L
sg26
L-46L
sg50
L-46L
sg29
L-46L
sg70
L-46L
sg28
L-46L
ssL89L
(dp205
g2
L-31L
sg4
L-31L
sg39
L-31L
sg5
L-31L
sg40
L-31L
sg43
L-31L
sg65
L-31L
sg38
L-31L
sg46
L-31L
sg10
L-31L
sg27
L-31L
sg51
L-31L
sg52
L-31L
sg53
L-31L
sg54
L-31L
sg16
L-31L
sg47
L-31L
sg17
L-31L
sg45
L-31L
sg68
L-31L
sg25
L-31L
sg21
L-31L
sg69
L-31L
sg42
L-31L
sg48
L-31L
sg44
L-31L
sg49
L-31L
sg24
L-31L
sg20
L-31L
sg26
L-31L
sg50
L-31L
sg29
L-31L
sg70
L-31L
sg28
L-31L
ssL90L
(dp206
g2
L-22L
sg4
L-22L
sg39
L-22L
sg5
L-22L
sg40
L-22L
sg43
L-22L
sg65
L-22L
sg38
L-22L
sg46
L-22L
sg10
L-22L
sg27
L-22L
sg51
L-22L
sg52
L-22L
sg53
L-22L
sg54
L-22L
sg16
L-22L
sg47
L-22L
sg17
L-22L
sg45
L-22L
sg68
L-22L
sg25
L-22L
sg21
L-22L
sg69
L-22L
sg42
L-22L
sg48
L-22L
sg44
L-22L
sg49
L-22L
sg24
L-22L
sg20
L-22L
sg26
L-22L
sg50
L-22L
sg29
L-22L
sg70
L-22L
sg28
L-22L
ssL91L
(dp207
g2
L-19L
sg4
L-19L
sg39
L-19L
sg5
L-19L
sg40
L-19L
sg43
L-19L
sg65
L-19L
sg38
L-19L
sg46
L-19L
sg10
L-19L
sg27
L-19L
sg51
L-19L
sg52
L-19L
sg53
L-19L
sg54
L-19L
sg16
L-19L
sg47
L-19L
sg17
L-19L
sg45
L-19L
sg68
L-19L
sg25
L-19L
sg21
L-19L
sg69
L-19L
sg42
L-19L
sg48
L-19L
sg44
L-19L
sg49
L-19L
sg24
L-19L
sg20
L-19L
sg26
L-19L
sg50
L-19L
sg29
L-19L
sg70
L-19L
sg28
L-19L
ssL92L
(dp208
VWORD
p209
L152L
ssL93L
(dp210
VWORD
p211
L153L
ssL94L
(dp212
VWORD
p213
L155L
sg58
L154L
sVNUMBER
p214
L156L
ssL95L
(dp215
VWORD
p216
L157L
ssL96L
(dp217
VWORD
p218
L158L
ssL97L
(dp219
VWORD
p220
L159L
sg58
L160L
sVNUMBER
p221
L161L
ssL98L
(dp222
VWORD
p223
L162L
ssL99L
(dp224
VWORD
p225
L163L
ssL100L
(dp226
VWORD
p227
L164L
ssL101L
(dp228
VWORD
p229
L165L
ssL102L
(dp230
g2
L-146L
sg4
L-146L
sg5
L-146L
sg6
L-146L
sg7
L-146L
sg8
L-146L
sg9
L-146L
sg10
L-146L
sg11
L-146L
sg12
L-146L
sg13
L-146L
sg14
L-146L
sg15
L-146L
sg16
L-146L
sg17
L-146L
sg18
L-146L
sg74
L-146L
sg20
L-146L
sg21
L-146L
sg22
L-146L
sg24
L-146L
sg25
L-146L
sg26
L-146L
sg27
L-146L
sg28
L-146L
sg29
L-146L
sg30
L-146L
sg31
L-146L
ssL103L
(dp231
g2
L-146L
sg4
L-146L
sg5
L-146L
sg6
L-146L
sg7
L-146L
sg8
L-146L
sg9
L-146L
sg10
L-146L
sg11
L-146L
sg12
L-146L
sg13
L-146L
sg14
L-146L
sg15
L-146L
sg16
L-146L
sg17
L-146L
sg18
L-146L
sg74
L-146L
sg20
L-146L
sg21
L-146L
sg22
L-146L
sg24
L-146L
sg25
L-146L
sg26
L-146L
sg27
L-146L
sg28
L-146L
sg29
L-146L
sg30
L-146L
sg31
L-146L
ssL104L
(dp232
g39
L168L
ssL105L
(dp233
g49
L169L
ssL106L
(dp234
g2
L-28L
sg4
L-28L
sg39
L-28L
sg5
L-28L
sg40
L-28L
sg43
L-28L
sg65
L-28L
sg38
L-28L
sg46
L-28L
sg10
L-28L
sg27
L-28L
sg51
L-28L
sg52
L-28L
sg53
L-28L
sg54
L-28L
sg16
L-28L
sg47
L-28L
sg17
L-28L
sg45
L-28L
sg68
L-28L
sg25
L-28L
sg21
L-28L
sg69
L-28L
sg42
L-28L
sg48
L-28L
sg44
L-28L
sg49
L-28L
sg24
L-28L
sg20
L-28L
sg26
L-28L
sg50
L-28L
sg29
L-28L
sg70
L-28L
sg28
L-28L
ssL107L
(dp235
g2
L1L
sg3
L19L
sg4
L2L
sg5
L4L
sg6
L5L
sg7
L21L
sg8
L7L
sg9
L22L
sg10
L23L
sg11
L9L
sg12
L35L
sg13
L24L
sg14
L10L
sg15
L46L
sg16
L12L
sg17
L37L
sg18
L13L
sg37
L-150L
sg20
L52L
sg21
L47L
sg22
L39L
sg23
L48L
sg24
L51L
sg25
L18L
sg26
L29L
sg27
L30L
sg28
L32L
sg29
L31L
sg30
L53L
sg31
L36L
ssL108L
(dp236
g2
L-146L
sg3
L-146L
sg4
L-146L
sg5
L-146L
sg6
L-146L
sg7
L-146L
sg8
L-146L
sg9
L-146L
sg10
L-146L
sg11
L-146L
sg12
L-146L
sg13
L-146L
sg14
L-146L
sg15
L-146L
sg16
L-146L
sg17
L-146L
sg18
L-146L
sg74
L-146L
sg20
L-146L
sg21
L-146L
sg22
L-146L
sg23
L-146L
sg24
L-146L
sg25
L-146L
sg26
L-146L
sg27
L-146L
sg28
L-146L
sg29
L-146L
sg30
L-146L
sg31
L-146L
ssL109L
(dp237
g2
L1L
sg3
L19L
sg4
L2L
sg5
L4L
sg6
L5L
sg7
L21L
sg8
L7L
sg9
L22L
sg10
L23L
sg11
L9L
sg12
L35L
sg13
L24L
sg14
L10L
sg15
L46L
sg16
L12L
sg17
L37L
sg18
L13L
sg37
L-149L
sg20
L52L
sg21
L47L
sg22
L39L
sg23
L48L
sg24
L51L
sg25
L18L
sg26
L29L
sg27
L30L
sg28
L32L
sg29
L31L
sg30
L53L
sg31
L36L
ssL110L
(dp238
g2
L-146L
sg3
L-146L
sg4
L-146L
sg5
L-146L
sg6
L-146L
sg7
L-146L
sg8
L-146L
sg9
L-146L
sg10
L-146L
sg11
L-146L
sg12
L-146L
sg13
L-146L
sg14
L-146L
sg15
L-146L
sg16
L-146L
sg17
L-146L
sg18
L-146L
sg74
L-146L
sg20
L-146L
sg21
L-146L
sg22
L-146L
sg23
L-146L
sg24
L-146L
sg25
L-146L
sg26
L-146L
sg27
L-146L
sg28
L-146L
sg29
L-146L
sg30
L-146L
sg31
L-146L
ssL111L
(dp239
VCOND_END
p240
L174L
ssL112L
(dp241
g2
L-143L
sg3
L-143L
sg4
L-143L
sg5
L-143L
sg6
L-143L
sg7
L-143L
sg8
L-143L
sg9
L-143L
sg10
L-143L
sg11
L-143L
sg12
L-143L
sg13
L-143L
sg14
L-143L
sg15
L-143L
sg16
L-143L
sg17
L-143L
sg18
L-143L
sg19
L-143L
sg20
L-143L
sg21
L-143L
sg22
L-143L
sg23
L-143L
sg100
L-143L
sg24
L-143L
sg25
L-143L
sg26
L-143L
sg27
L-143L
sg28
L-143L
sg29
L-143L
sg30
L-143L
sg31
L-143L
ssL113L
(dp242
g2
L-3L
sg3
L-3L
sg4
L-3L
sg5
L-3L
sg6
L-3L
sg7
L-3L
sg8
L-3L
sg9
L-3L
sg10
L-3L
sg11
L-3L
sg12
L-3L
sg13
L-3L
sg14
L-3L
sg15
L-3L
sg16
L-3L
sg17
L-3L
sg18
L-3L
sg19
L-3L
sg20
L-3L
sg21
L-3L
sg22
L-3L
sg23
L-3L
sg100
L-3L
sg24
L-3L
sg25
L-3L
sg26
L-3L
sg27
L-3L
sg28
L-3L
sg29
L-3L
sg30
L-3L
sg31
L-3L
ssL114L
(dp243
g2
L1L
sg20
L52L
sg4
L2L
sg5
L4L
sg65
L175L
sg21
L47L
sg24
L51L
sg25
L18L
sg10
L23L
sg26
L29L
sg27
L30L
sg28
L32L
sg29
L31L
sg16
L12L
sg17
L37L
ssL115L
(dp244
g68
L-58L
sg38
L-58L
sg39
L-58L
sg40
L-58L
sg69
L-58L
sg42
L-58L
sg43
L-58L
sg44
L-58L
sg45
L-58L
sg46
L-58L
sg70
L-58L
sg48
L-58L
sg49
L-58L
sg50
L-58L
sg51
L-58L
sg52
L-58L
sg53
L-58L
sg54
L-58L
sg47
L-58L
ssL116L
(dp245
VWORD
p246
L177L
ssL117L
(dp247
VWORD
p248
L179L
sg58
L178L
sVNUMBER
p249
L180L
ssL118L
(dp250
VWORD
p251
L181L
ssL119L
(dp252
VWORD
p253
L182L
ssL120L
(dp254
VWORD
p255
L183L
ssL121L
(dp256
VWORD
p257
L184L
sg58
L185L
sVNUMBER
p258
L186L
ssL122L
(dp259
VWORD
p260
L187L
ssL123L
(dp261
VWORD
p262
L188L
ssL124L
(dp263
VWORD
p264
L189L
ssL125L
(dp265
VWORD
p266
L190L
ssL126L
(dp267
g2
L-165L
sg3
L-165L
sg4
L-165L
sg5
L-165L
sg40
L-165L
sg7
L-165L
sg8
L-165L
sg9
L-165L
sg10
L-165L
sg11
L-165L
sg12
L-165L
sg13
L-165L
sg14
L-165L
sg15
L-165L
sg16
L-165L
sg17
L-165L
sg6
L-165L
sg76
L-165L
sg20
L-165L
sg21
L-165L
sg22
L-165L
sg23
L-165L
sVTIMEIGN
p268
L191L
sg24
L-165L
sg25
L-165L
sg26
L-165L
sg27
L-165L
sg28
L-165L
sg29
L-165L
sg18
L-165L
sg30
L-165L
sg31
L-165L
ssL127L
(dp269
g2
L-50L
sg4
L-50L
sg39
L-50L
sg5
L-50L
sg40
L-50L
sg43
L-50L
sg65
L-50L
sg38
L-50L
sg46
L-50L
sg10
L-50L
sg27
L-50L
sg51
L-50L
sg52
L-50L
sg53
L-50L
sg54
L-50L
sg16
L-50L
sg47
L-50L
sg17
L-50L
sg45
L-50L
sg68
L-50L
sg25
L-50L
sg21
L-50L
sg69
L-50L
sg42
L-50L
sg48
L-50L
sg44
L-50L
sg49
L-50L
sg24
L-50L
sg20
L-50L
sg26
L-50L
sg50
L-50L
sg29
L-50L
sg70
L-50L
sg28
L-50L
ssL128L
(dp270
g2
L-49L
sg4
L-49L
sg39
L-49L
sg5
L-49L
sg40
L-49L
sg43
L-49L
sg65
L-49L
sg38
L-49L
sg46
L-49L
sg10
L-49L
sg27
L-49L
sg51
L-49L
sg52
L-49L
sg53
L-49L
sg54
L-49L
sg16
L-49L
sg47
L-49L
sg17
L-49L
sg45
L-49L
sg68
L-49L
sg25
L-49L
sg21
L-49L
sg69
L-49L
sg42
L-49L
sg48
L-49L
sg44
L-49L
sg49
L-49L
sg24
L-49L
sg20
L-49L
sg26
L-49L
sg50
L-49L
sg29
L-49L
sg70
L-49L
sg28
L-49L
ssL129L
(dp271
g169
L192L
ssL130L
(dp272
g152
L195L
sg74
L140L
sg153
L193L
sg154
L194L
ssL131L
(dp273
g74
L-146L
sVDO
p274
L-146L
sVLBRACE
p275
L-146L
ssL132L
(dp276
g74
L-146L
sVDO
p277
L-146L
sVLBRACE
p278
L-146L
ssL133L
(dp279
g2
L-146L
sg3
L-146L
sg4
L-146L
sg5
L-146L
sg6
L-146L
sg7
L-146L
sg8
L-146L
sg9
L-146L
sg10
L-146L
sg11
L-146L
sg12
L-146L
sg13
L-146L
sg14
L-146L
sg15
L-146L
sg16
L-146L
sg17
L-146L
sg18
L-146L
sg74
L-146L
sg20
L-146L
sg21
L-146L
sg22
L-146L
sg23
L-146L
sg24
L-146L
sg25
L-146L
sg26
L-146L
sg27
L-146L
sg28
L-146L
sg29
L-146L
sg30
L-146L
sg31
L-146L
ssL134L
(dp280
g2
L-146L
sg3
L-146L
sg4
L-146L
sg5
L-146L
sg6
L-146L
sg7
L-146L
sg8
L-146L
sg9
L-146L
sg10
L-146L
sg11
L-146L
sg12
L-146L
sg13
L-146L
sg14
L-146L
sg15
L-146L
sg16
L-146L
sg17
L-146L
sg18
L-146L
sg74
L-146L
sg20
L-146L
sg21
L-146L
sg22
L-146L
sg23
L-146L
sg24
L-146L
sg25
L-146L
sg26
L-146L
sg27
L-146L
sg28
L-146L
sg29
L-146L
sg30
L-146L
sg31
L-146L
ssL135L
(dp281
g159
L201L
sg14
L200L
ssL136L
(dp282
g2
L-170L
sg4
L-170L
sg39
L-170L
sg5
L-170L
sg40
L-170L
sg43
L-170L
sg65
L-170L
sg38
L-170L
sg46
L-170L
sg10
L-170L
sg27
L-170L
sg51
L-170L
sg52
L-170L
sg53
L-170L
sg54
L-170L
sg16
L-170L
sg47
L-170L
sg17
L-170L
sg45
L-170L
sg37
L-170L
sg25
L-170L
sg21
L-170L
sg41
L-170L
sg42
L-170L
sg48
L-170L
sg44
L-170L
sg49
L-170L
sg24
L-170L
sg20
L-170L
sg26
L-170L
sg50
L-170L
sg29
L-170L
sg55
L-170L
sg28
L-170L
ssL137L
(dp283
g74
L-146L
sg9
L-146L
sg13
L-146L
sg11
L-146L
sg12
L-146L
sg31
L-146L
sg14
L-146L
sg15
L-146L
sg22
L-146L
sg30
L-146L
sg6
L-146L
ssL138L
(dp284
g163
L203L
sg74
L140L
ssL139L
(dp285
g68
L-142L
sg39
L-142L
sg40
L-142L
sg43
L-142L
sg42
L-142L
sg69
L-142L
sg44
L-142L
sg45
L-142L
sg46
L-142L
sg48
L-142L
sg49
L-142L
sg50
L-142L
sg51
L-142L
sg52
L-142L
sg53
L-142L
sg54
L-142L
sg70
L-142L
ssL140L
(dp286
g2
L-147L
sg3
L-147L
sg4
L-147L
sg39
L-147L
sg5
L-147L
sg6
L-147L
sg7
L-147L
sg45
L-147L
sg8
L-147L
sg51
L-147L
sg46
L-147L
sg9
L-147L
sg10
L-147L
sg50
L-147L
sg11
L-147L
sg12
L-147L
sg13
L-147L
sg14
L-147L
sg53
L-147L
sg152
L-147L
sg15
L-147L
sg54
L-147L
sg16
L-147L
sg17
L-147L
sg18
L-147L
sg74
L-147L
sg20
L-147L
sg21
L-147L
sg22
L-147L
sVDONE
p287
L-147L
sg23
L-147L
sg42
L-147L
sg48
L-147L
sg44
L-147L
sVDO
p288
L-147L
sg24
L-147L
sg25
L-147L
sg26
L-147L
sg27
L-147L
sg28
L-147L
sg29
L-147L
sg30
L-147L
sg31
L-147L
ssL141L
(dp289
g39
L-131L
sVDONE
p290
L-131L
sg42
L-131L
sg48
L-131L
sg168
L-131L
sg170
L-131L
sVTHEN
p291
L-131L
sg49
L-131L
sg50
L-131L
sg51
L-131L
sg53
L-131L
sg54
L-131L
ssL142L
(dp292
g68
L204L
sg39
L-133L
sg40
L206L
sg167
L-133L
sg42
L-133L
sg48
L-133L
sg168
L-133L
sg169
L-133L
sg46
L-133L
sg170
L-133L
sg50
L-133L
sg69
L207L
sg51
L-133L
sg52
L205L
sg53
L-133L
sg54
L-133L
sg70
L208L
ssL143L
(dp293
g2
L-102L
sg4
L-102L
sg39
L-102L
sg5
L-102L
sg40
L-102L
sg43
L-102L
sg38
L-102L
sg46
L-102L
sg10
L-102L
sg27
L-102L
sg51
L-102L
sg52
L-102L
sg53
L-102L
sg54
L-102L
sg16
L-102L
sg47
L-102L
sg17
L-102L
sg45
L-102L
sg68
L-102L
sg25
L-102L
sg21
L-102L
sg69
L-102L
sg42
L-102L
sg48
L-102L
sg44
L-102L
sg49
L-102L
sg24
L-102L
sg20
L-102L
sg26
L-102L
sg50
L-102L
sg29
L-102L
sg70
L-102L
sg84
L-102L
ssL144L
(dp294
g51
L209L
ssL145L
(dp295
g74
L140L
sg9
L22L
sg13
L24L
sg11
L9L
sg12
L35L
sg31
L36L
sg14
L10L
sg15
L46L
sg22
L39L
sg30
L53L
sg6
L5L
ssL146L
(dp296
g2
L-55L
sg4
L-55L
sg39
L-55L
sg5
L-55L
sg40
L-55L
sg43
L-55L
sg38
L-55L
sg46
L-55L
sg10
L-55L
sg27
L-55L
sg51
L-55L
sg52
L-55L
sg53
L-55L
sg54
L-55L
sg16
L-55L
sg47
L-55L
sg17
L-55L
sg45
L-55L
sg37
L-55L
sg25
L-55L
sg21
L-55L
sg41
L-55L
sg42
L-55L
sg48
L-55L
sg44
L-55L
sg49
L-55L
sg24
L-55L
sg20
L-55L
sg26
L-55L
sg50
L-55L
sg29
L-55L
sg55
L-55L
sg84
L-55L
ssL147L
(dp297
g2
L1L
sg38
L-105L
sg39
L-105L
sg5
L4L
sg40
L-105L
sg43
L-105L
sg26
L29L
sg4
L2L
sg46
L-105L
sg10
L23L
sg50
L-105L
sg51
L-105L
sg52
L-105L
sg53
L-105L
sg54
L-105L
sg16
L12L
sg47
L-105L
sg17
L37L
sg68
L-105L
sg20
L52L
sg21
L47L
sg69
L-105L
sg42
L-105L
sg48
L-105L
sg44
L-105L
sg49
L-105L
sg24
L51L
sg25
L18L
sg45
L-105L
sg27
L30L
sg29
L31L
sg70
L-105L
sg84
L77L
ssL148L
(dp298
g2
L1L
sg38
L-104L
sg39
L-104L
sg5
L4L
sg40
L-104L
sg43
L-104L
sg26
L29L
sg4
L2L
sg46
L-104L
sg10
L23L
sg50
L-104L
sg51
L-104L
sg52
L-104L
sg53
L-104L
sg54
L-104L
sg16
L12L
sg47
L-104L
sg17
L37L
sg68
L-104L
sg20
L52L
sg21
L47L
sg69
L-104L
sg42
L-104L
sg48
L-104L
sg44
L-104L
sg49
L-104L
sg24
L51L
sg25
L18L
sg45
L-104L
sg27
L30L
sg29
L31L
sg70
L-104L
sg84
L77L
ssL149L
(dp299
g2
L-146L
sg3
L-146L
sg4
L-146L
sg5
L-146L
sg6
L-146L
sg7
L-146L
sg8
L-146L
sg9
L-146L
sg10
L-146L
sg11
L-146L
sg12
L-146L
sg13
L-146L
sg14
L-146L
sg15
L-146L
sg16
L-146L
sg17
L-146L
sg18
L-146L
sg74
L-146L
sg20
L-146L
sg21
L-146L
sg22
L-146L
sg23
L-146L
sg24
L-146L
sg25
L-146L
sg26
L-146L
sg27
L-146L
sg28
L-146L
sg29
L-146L
sg30
L-146L
sg31
L-146L
ssL150L
(dp300
g74
L-146L
sVDO
p301
L-146L
sVLBRACE
p302
L-146L
ssL151L
(dp303
g200
L217L
sg74
L140L
sg201
L215L
sg202
L216L
ssL152L
(dp304
g2
L-9L
sg4
L-9L
sg39
L-9L
sg5
L-9L
sg40
L-9L
sg43
L-9L
sg65
L-9L
sg38
L-9L
sg46
L-9L
sg10
L-9L
sg27
L-9L
sg51
L-9L
sg52
L-9L
sg53
L-9L
sg54
L-9L
sg16
L-9L
sg47
L-9L
sg17
L-9L
sg45
L-9L
sg68
L-9L
sg25
L-9L
sg21
L-9L
sg69
L-9L
sg42
L-9L
sg48
L-9L
sg44
L-9L
sg49
L-9L
sg24
L-9L
sg20
L-9L
sg26
L-9L
sg50
L-9L
sg29
L-9L
sg70
L-9L
sg28
L-9L
ssL153L
(dp305
g2
L-10L
sg4
L-10L
sg39
L-10L
sg5
L-10L
sg40
L-10L
sg43
L-10L
sg65
L-10L
sg38
L-10L
sg46
L-10L
sg10
L-10L
sg27
L-10L
sg51
L-10L
sg52
L-10L
sg53
L-10L
sg54
L-10L
sg16
L-10L
sg47
L-10L
sg17
L-10L
sg45
L-10L
sg68
L-10L
sg25
L-10L
sg21
L-10L
sg69
L-10L
sg42
L-10L
sg48
L-10L
sg44
L-10L
sg49
L-10L
sg24
L-10L
sg20
L-10L
sg26
L-10L
sg50
L-10L
sg29
L-10L
sg70
L-10L
sg28
L-10L
ssL154L
(dp306
g2
L-44L
sg4
L-44L
sg39
L-44L
sg5
L-44L
sg40
L-44L
sg43
L-44L
sg65
L-44L
sg38
L-44L
sg46
L-44L
sg10
L-44L
sg27
L-44L
sg51
L-44L
sg52
L-44L
sg53
L-44L
sg54
L-44L
sg16
L-44L
sg47
L-44L
sg17
L-44L
sg45
L-44L
sg68
L-44L
sg25
L-44L
sg21
L-44L
sg69
L-44L
sg42
L-44L
sg48
L-44L
sg44
L-44L
sg49
L-44L
sg24
L-44L
sg20
L-44L
sg26
L-44L
sg50
L-44L
sg29
L-44L
sg70
L-44L
sg28
L-44L
ssL155L
(dp307
g2
L-41L
sg4
L-41L
sg39
L-41L
sg5
L-41L
sg40
L-41L
sg43
L-41L
sg65
L-41L
sg38
L-41L
sg46
L-41L
sg10
L-41L
sg27
L-41L
sg51
L-41L
sg52
L-41L
sg53
L-41L
sg54
L-41L
sg16
L-41L
sg47
L-41L
sg17
L-41L
sg45
L-41L
sg68
L-41L
sg25
L-41L
sg21
L-41L
sg69
L-41L
sg42
L-41L
sg48
L-41L
sg44
L-41L
sg49
L-41L
sg24
L-41L
sg20
L-41L
sg26
L-41L
sg50
L-41L
sg29
L-41L
sg70
L-41L
sg28
L-41L
ssL156L
(dp308
g2
L-35L
sg4
L-35L
sg39
L-35L
sg5
L-35L
sg40
L-35L
sg43
L-35L
sg65
L-35L
sg38
L-35L
sg46
L-35L
sg10
L-35L
sg27
L-35L
sg51
L-35L
sg52
L-35L
sg53
L-35L
sg54
L-35L
sg16
L-35L
sg47
L-35L
sg17
L-35L
sg45
L-35L
sg68
L-35L
sg25
L-35L
sg21
L-35L
sg69
L-35L
sg42
L-35L
sg48
L-35L
sg44
L-35L
sg49
L-35L
sg24
L-35L
sg20
L-35L
sg26
L-35L
sg50
L-35L
sg29
L-35L
sg70
L-35L
sg28
L-35L
ssL157L
(dp309
g2
L-17L
sg4
L-17L
sg39
L-17L
sg5
L-17L
sg40
L-17L
sg43
L-17L
sg65
L-17L
sg38
L-17L
sg46
L-17L
sg10
L-17L
sg27
L-17L
sg51
L-17L
sg52
L-17L
sg53
L-17L
sg54
L-17L
sg16
L-17L
sg47
L-17L
sg17
L-17L
sg45
L-17L
sg68
L-17L
sg25
L-17L
sg21
L-17L
sg69
L-17L
sg42
L-17L
sg48
L-17L
sg44
L-17L
sg49
L-17L
sg24
L-17L
sg20
L-17L
sg26
L-17L
sg50
L-17L
sg29
L-17L
sg70
L-17L
sg28
L-17L
ssL158L
(dp310
g2
L-14L
sg4
L-14L
sg39
L-14L
sg5
L-14L
sg40
L-14L
sg43
L-14L
sg65
L-14L
sg38
L-14L
sg46
L-14L
sg10
L-14L
sg27
L-14L
sg51
L-14L
sg52
L-14L
sg53
L-14L
sg54
L-14L
sg16
L-14L
sg47
L-14L
sg17
L-14L
sg45
L-14L
sg68
L-14L
sg25
L-14L
sg21
L-14L
sg69
L-14L
sg42
L-14L
sg48
L-14L
sg44
L-14L
sg49
L-14L
sg24
L-14L
sg20
L-14L
sg26
L-14L
sg50
L-14L
sg29
L-14L
sg70
L-14L
sg28
L-14L
ssL159L
(dp311
g2
L-38L
sg4
L-38L
sg39
L-38L
sg5
L-38L
sg40
L-38L
sg43
L-38L
sg65
L-38L
sg38
L-38L
sg46
L-38L
sg10
L-38L
sg27
L-38L
sg51
L-38L
sg52
L-38L
sg53
L-38L
sg54
L-38L
sg16
L-38L
sg47
L-38L
sg17
L-38L
sg45
L-38L
sg68
L-38L
sg25
L-38L
sg21
L-38L
sg69
L-38L
sg42
L-38L
sg48
L-38L
sg44
L-38L
sg49
L-38L
sg24
L-38L
sg20
L-38L
sg26
L-38L
sg50
L-38L
sg29
L-38L
sg70
L-38L
sg28
L-38L
ssL160L
(dp312
g2
L-47L
sg4
L-47L
sg39
L-47L
sg5
L-47L
sg40
L-47L
sg43
L-47L
sg65
L-47L
sg38
L-47L
sg46
L-47L
sg10
L-47L
sg27
L-47L
sg51
L-47L
sg52
L-47L
sg53
L-47L
sg54
L-47L
sg16
L-47L
sg47
L-47L
sg17
L-47L
sg45
L-47L
sg68
L-47L
sg25
L-47L
sg21
L-47L
sg69
L-47L
sg42
L-47L
sg48
L-47L
sg44
L-47L
sg49
L-47L
sg24
L-47L
sg20
L-47L
sg26
L-47L
sg50
L-47L
sg29
L-47L
sg70
L-47L
sg28
L-47L
ssL161L
(dp313
g2
L-32L
sg4
L-32L
sg39
L-32L
sg5
L-32L
sg40
L-32L
sg43
L-32L
sg65
L-32L
sg38
L-32L
sg46
L-32L
sg10
L-32L
sg27
L-32L
sg51
L-32L
sg52
L-32L
sg53
L-32L
sg54
L-32L
sg16
L-32L
sg47
L-32L
sg17
L-32L
sg45
L-32L
sg68
L-32L
sg25
L-32L
sg21
L-32L
sg69
L-32L
sg42
L-32L
sg48
L-32L
sg44
L-32L
sg49
L-32L
sg24
L-32L
sg20
L-32L
sg26
L-32L
sg50
L-32L
sg29
L-32L
sg70
L-32L
sg28
L-32L
ssL162L
(dp314
g2
L-23L
sg4
L-23L
sg39
L-23L
sg5
L-23L
sg40
L-23L
sg43
L-23L
sg65
L-23L
sg38
L-23L
sg46
L-23L
sg10
L-23L
sg27
L-23L
sg51
L-23L
sg52
L-23L
sg53
L-23L
sg54
L-23L
sg16
L-23L
sg47
L-23L
sg17
L-23L
sg45
L-23L
sg68
L-23L
sg25
L-23L
sg21
L-23L
sg69
L-23L
sg42
L-23L
sg48
L-23L
sg44
L-23L
sg49
L-23L
sg24
L-23L
sg20
L-23L
sg26
L-23L
sg50
L-23L
sg29
L-23L
sg70
L-23L
sg28
L-23L
ssL163L
(dp315
g2
L-20L
sg4
L-20L
sg39
L-20L
sg5
L-20L
sg40
L-20L
sg43
L-20L
sg65
L-20L
sg38
L-20L
sg46
L-20L
sg10
L-20L
sg27
L-20L
sg51
L-20L
sg52
L-20L
sg53
L-20L
sg54
L-20L
sg16
L-20L
sg47
L-20L
sg17
L-20L
sg45
L-20L
sg68
L-20L
sg25
L-20L
sg21
L-20L
sg69
L-20L
sg42
L-20L
sg48
L-20L
sg44
L-20L
sg49
L-20L
sg24
L-20L
sg20
L-20L
sg26
L-20L
sg50
L-20L
sg29
L-20L
sg70
L-20L
sg28
L-20L
ssL164L
(dp316
g2
L-26L
sg4
L-26L
sg39
L-26L
sg5
L-26L
sg40
L-26L
sg43
L-26L
sg65
L-26L
sg38
L-26L
sg46
L-26L
sg10
L-26L
sg27
L-26L
sg51
L-26L
sg52
L-26L
sg53
L-26L
sg54
L-26L
sg16
L-26L
sg47
L-26L
sg17
L-26L
sg45
L-26L
sg68
L-26L
sg25
L-26L
sg21
L-26L
sg69
L-26L
sg42
L-26L
sg48
L-26L
sg44
L-26L
sg49
L-26L
sg24
L-26L
sg20
L-26L
sg26
L-26L
sg50
L-26L
sg29
L-26L
sg70
L-26L
sg28
L-26L
ssL165L
(dp317
g2
L-29L
sg4
L-29L
sg39
L-29L
sg5
L-29L
sg40
L-29L
sg43
L-29L
sg65
L-29L
sg38
L-29L
sg46
L-29L
sg10
L-29L
sg27
L-29L
sg51
L-29L
sg52
L-29L
sg53
L-29L
sg54
L-29L
sg16
L-29L
sg47
L-29L
sg17
L-29L
sg45
L-29L
sg68
L-29L
sg25
L-29L
sg21
L-29L
sg69
L-29L
sg42
L-29L
sg48
L-29L
sg44
L-29L
sg49
L-29L
sg24
L-29L
sg20
L-29L
sg26
L-29L
sg50
L-29L
sg29
L-29L
sg70
L-29L
sg28
L-29L
ssL166L
(dp318
g2
L1L
sg4
L2L
sg5
L4L
sg6
L5L
sg7
L21L
sg8
L7L
sg9
L22L
sg10
L23L
sg11
L9L
sg12
L35L
sg13
L24L
sg14
L10L
sg15
L46L
sg16
L12L
sg17
L37L
sg18
L13L
sg74
L140L
sg20
L52L
sg21
L47L
sg22
L39L
sg24
L51L
sg25
L18L
sg26
L29L
sg27
L30L
sg28
L32L
sg29
L31L
sg30
L53L
sg31
L36L
ssL167L
(dp319
g2
L1L
sg4
L2L
sg5
L4L
sg6
L5L
sg7
L21L
sg8
L7L
sg9
L22L
sg10
L23L
sg11
L9L
sg12
L35L
sg13
L24L
sg14
L10L
sg15
L46L
sg16
L12L
sg17
L37L
sg18
L13L
sg74
L140L
sg20
L52L
sg21
L47L
sg22
L39L
sg24
L51L
sg25
L18L
sg26
L29L
sg27
L30L
sg28
L32L
sg29
L31L
sg30
L53L
sg31
L36L
ssL168L
(dp320
g2
L-111L
sg4
L-111L
sg39
L-111L
sg5
L-111L
sg40
L-111L
sg43
L-111L
sg38
L-111L
sg46
L-111L
sg10
L-111L
sg27
L-111L
sg51
L-111L
sg52
L-111L
sg53
L-111L
sg54
L-111L
sg16
L-111L
sg47
L-111L
sg17
L-111L
sg45
L-111L
sg37
L-111L
sg25
L-111L
sg21
L-111L
sg41
L-111L
sg42
L-111L
sg48
L-111L
sg44
L-111L
sg49
L-111L
sg24
L-111L
sg20
L-111L
sg26
L-111L
sg50
L-111L
sg29
L-111L
sg55
L-111L
sg84
L-111L
ssL169L
(dp321
g2
L-146L
sg3
L-146L
sg4
L-146L
sg5
L-146L
sg6
L-146L
sg7
L-146L
sg8
L-146L
sg9
L-146L
sg10
L-146L
sg11
L-146L
sg12
L-146L
sg13
L-146L
sg14
L-146L
sg15
L-146L
sg16
L-146L
sg17
L-146L
sg18
L-146L
sg74
L-146L
sg20
L-146L
sg21
L-146L
sg22
L-146L
sg23
L-146L
sg24
L-146L
sg25
L-146L
sg26
L-146L
sg27
L-146L
sg28
L-146L
sg29
L-146L
sg30
L-146L
sg31
L-146L
ssL170L
(dp322
g52
L-154L
sg37
L-154L
sg41
L108L
sg40
L-154L
sg55
L110L
ssL171L
(dp323
g2
L1L
sg3
L19L
sg4
L2L
sg5
L4L
sg6
L5L
sg7
L21L
sg8
L7L
sg9
L22L
sg10
L23L
sg11
L9L
sg12
L35L
sg13
L24L
sg14
L10L
sg15
L46L
sg16
L12L
sg17
L37L
sg18
L13L
sg74
L140L
sg20
L52L
sg21
L47L
sg22
L39L
sg23
L48L
sg24
L51L
sg25
L18L
sg26
L29L
sg27
L30L
sg28
L32L
sg29
L31L
sg30
L53L
sg31
L36L
ssL172L
(dp324
g52
L-153L
sg37
L-153L
sg41
L108L
sg40
L-153L
sg55
L110L
ssL173L
(dp325
g2
L1L
sg3
L19L
sg4
L2L
sg5
L4L
sg6
L5L
sg7
L21L
sg8
L7L
sg9
L22L
sg10
L23L
sg11
L9L
sg12
L35L
sg13
L24L
sg14
L10L
sg15
L46L
sg16
L12L
sg17
L37L
sg18
L13L
sg74
L140L
sg20
L52L
sg21
L47L
sg22
L39L
sg23
L48L
sg24
L51L
sg25
L18L
sg26
L29L
sg27
L30L
sg28
L32L
sg29
L31L
sg30
L53L
sg31
L36L
ssL174L
(dp326
g2
L-113L
sg4
L-113L
sg39
L-113L
sg5
L-113L
sg40
L-113L
sg43
L-113L
sg38
L-113L
sg46
L-113L
sg10
L-113L
sg27
L-113L
sg51
L-113L
sg52
L-113L
sg53
L-113L
sg54
L-113L
sg16
L-113L
sg47
L-113L
sg17
L-113L
sg45
L-113L
sg37
L-113L
sg25
L-113L
sg21
L-113L
sg41
L-113L
sg42
L-113L
sg48
L-113L
sg44
L-113L
sg49
L-113L
sg24
L-113L
sg20
L-113L
sg26
L-113L
sg50
L-113L
sg29
L-113L
sg55
L-113L
sg84
L-113L
ssL175L
(dp327
g2
L-51L
sg4
L-51L
sg39
L-51L
sg5
L-51L
sg40
L-51L
sg43
L-51L
sg65
L-51L
sg38
L-51L
sg46
L-51L
sg10
L-51L
sg27
L-51L
sg51
L-51L
sg52
L-51L
sg53
L-51L
sg54
L-51L
sg16
L-51L
sg47
L-51L
sg17
L-51L
sg45
L-51L
sg37
L-51L
sg25
L-51L
sg21
L-51L
sg41
L-51L
sg42
L-51L
sg66
L62L
sg48
L-51L
sg44
L-51L
sg49
L-51L
sg24
L-51L
sg20
L-51L
sg26
L-51L
sg50
L-51L
sg29
L-51L
sg55
L-51L
sg28
L-51L
ssL176L
(dp328
g2
L-57L
sg4
L-57L
sg39
L-57L
sg5
L-57L
sg40
L-57L
sg43
L-57L
sg65
L-57L
sg38
L-57L
sg46
L-57L
sg10
L-57L
sg27
L-57L
sg51
L-57L
sg52
L-57L
sg53
L-57L
sg54
L-57L
sg16
L-57L
sg47
L-57L
sg17
L-57L
sg45
L-57L
sg37
L-57L
sg25
L-57L
sg21
L-57L
sg41
L-57L
sg42
L-57L
sg48
L-57L
sg44
L-57L
sg49
L-57L
sg24
L-57L
sg20
L-57L
sg26
L-57L
sg50
L-57L
sg29
L-57L
sg55
L-57L
sg28
L-57L
ssL177L
(dp329
g2
L-11L
sg4
L-11L
sg39
L-11L
sg5
L-11L
sg40
L-11L
sg43
L-11L
sg65
L-11L
sg38
L-11L
sg46
L-11L
sg10
L-11L
sg27
L-11L
sg51
L-11L
sg52
L-11L
sg53
L-11L
sg54
L-11L
sg16
L-11L
sg47
L-11L
sg17
L-11L
sg45
L-11L
sg68
L-11L
sg25
L-11L
sg21
L-11L
sg69
L-11L
sg42
L-11L
sg48
L-11L
sg44
L-11L
sg49
L-11L
sg24
L-11L
sg20
L-11L
sg26
L-11L
sg50
L-11L
sg29
L-11L
sg70
L-11L
sg28
L-11L
ssL178L
(dp330
g2
L-45L
sg4
L-45L
sg39
L-45L
sg5
L-45L
sg40
L-45L
sg43
L-45L
sg65
L-45L
sg38
L-45L
sg46
L-45L
sg10
L-45L
sg27
L-45L
sg51
L-45L
sg52
L-45L
sg53
L-45L
sg54
L-45L
sg16
L-45L
sg47
L-45L
sg17
L-45L
sg45
L-45L
sg68
L-45L
sg25
L-45L
sg21
L-45L
sg69
L-45L
sg42
L-45L
sg48
L-45L
sg44
L-45L
sg49
L-45L
sg24
L-45L
sg20
L-45L
sg26
L-45L
sg50
L-45L
sg29
L-45L
sg70
L-45L
sg28
L-45L
ssL179L
(dp331
g2
L-42L
sg4
L-42L
sg39
L-42L
sg5
L-42L
sg40
L-42L
sg43
L-42L
sg65
L-42L
sg38
L-42L
sg46
L-42L
sg10
L-42L
sg27
L-42L
sg51
L-42L
sg52
L-42L
sg53
L-42L
sg54
L-42L
sg16
L-42L
sg47
L-42L
sg17
L-42L
sg45
L-42L
sg68
L-42L
sg25
L-42L
sg21
L-42L
sg69
L-42L
sg42
L-42L
sg48
L-42L
sg44
L-42L
sg49
L-42L
sg24
L-42L
sg20
L-42L
sg26
L-42L
sg50
L-42L
sg29
L-42L
sg70
L-42L
sg28
L-42L
ssL180L
(dp332
g2
L-36L
sg4
L-36L
sg39
L-36L
sg5
L-36L
sg40
L-36L
sg43
L-36L
sg65
L-36L
sg38
L-36L
sg46
L-36L
sg10
L-36L
sg27
L-36L
sg51
L-36L
sg52
L-36L
sg53
L-36L
sg54
L-36L
sg16
L-36L
sg47
L-36L
sg17
L-36L
sg45
L-36L
sg68
L-36L
sg25
L-36L
sg21
L-36L
sg69
L-36L
sg42
L-36L
sg48
L-36L
sg44
L-36L
sg49
L-36L
sg24
L-36L
sg20
L-36L
sg26
L-36L
sg50
L-36L
sg29
L-36L
sg70
L-36L
sg28
L-36L
ssL181L
(dp333
g2
L-12L
sg4
L-12L
sg39
L-12L
sg5
L-12L
sg40
L-12L
sg43
L-12L
sg65
L-12L
sg38
L-12L
sg46
L-12L
sg10
L-12L
sg27
L-12L
sg51
L-12L
sg52
L-12L
sg53
L-12L
sg54
L-12L
sg16
L-12L
sg47
L-12L
sg17
L-12L
sg45
L-12L
sg68
L-12L
sg25
L-12L
sg21
L-12L
sg69
L-12L
sg42
L-12L
sg48
L-12L
sg44
L-12L
sg49
L-12L
sg24
L-12L
sg20
L-12L
sg26
L-12L
sg50
L-12L
sg29
L-12L
sg70
L-12L
sg28
L-12L
ssL182L
(dp334
g2
L-18L
sg4
L-18L
sg39
L-18L
sg5
L-18L
sg40
L-18L
sg43
L-18L
sg65
L-18L
sg38
L-18L
sg46
L-18L
sg10
L-18L
sg27
L-18L
sg51
L-18L
sg52
L-18L
sg53
L-18L
sg54
L-18L
sg16
L-18L
sg47
L-18L
sg17
L-18L
sg45
L-18L
sg68
L-18L
sg25
L-18L
sg21
L-18L
sg69
L-18L
sg42
L-18L
sg48
L-18L
sg44
L-18L
sg49
L-18L
sg24
L-18L
sg20
L-18L
sg26
L-18L
sg50
L-18L
sg29
L-18L
sg70
L-18L
sg28
L-18L
ssL183L
(dp335
g2
L-15L
sg4
L-15L
sg39
L-15L
sg5
L-15L
sg40
L-15L
sg43
L-15L
sg65
L-15L
sg38
L-15L
sg46
L-15L
sg10
L-15L
sg27
L-15L
sg51
L-15L
sg52
L-15L
sg53
L-15L
sg54
L-15L
sg16
L-15L
sg47
L-15L
sg17
L-15L
sg45
L-15L
sg68
L-15L
sg25
L-15L
sg21
L-15L
sg69
L-15L
sg42
L-15L
sg48
L-15L
sg44
L-15L
sg49
L-15L
sg24
L-15L
sg20
L-15L
sg26
L-15L
sg50
L-15L
sg29
L-15L
sg70
L-15L
sg28
L-15L
ssL184L
(dp336
g2
L-39L
sg4
L-39L
sg39
L-39L
sg5
L-39L
sg40
L-39L
sg43
L-39L
sg65
L-39L
sg38
L-39L
sg46
L-39L
sg10
L-39L
sg27
L-39L
sg51
L-39L
sg52
L-39L
sg53
L-39L
sg54
L-39L
sg16
L-39L
sg47
L-39L
sg17
L-39L
sg45
L-39L
sg68
L-39L
sg25
L-39L
sg21
L-39L
sg69
L-39L
sg42
L-39L
sg48
L-39L
sg44
L-39L
sg49
L-39L
sg24
L-39L
sg20
L-39L
sg26
L-39L
sg50
L-39L
sg29
L-39L
sg70
L-39L
sg28
L-39L
ssL185L
(dp337
g2
L-48L
sg4
L-48L
sg39
L-48L
sg5
L-48L
sg40
L-48L
sg43
L-48L
sg65
L-48L
sg38
L-48L
sg46
L-48L
sg10
L-48L
sg27
L-48L
sg51
L-48L
sg52
L-48L
sg53
L-48L
sg54
L-48L
sg16
L-48L
sg47
L-48L
sg17
L-48L
sg45
L-48L
sg68
L-48L
sg25
L-48L
sg21
L-48L
sg69
L-48L
sg42
L-48L
sg48
L-48L
sg44
L-48L
sg49
L-48L
sg24
L-48L
sg20
L-48L
sg26
L-48L
sg50
L-48L
sg29
L-48L
sg70
L-48L
sg28
L-48L
ssL186L
(dp338
g2
L-33L
sg4
L-33L
sg39
L-33L
sg5
L-33L
sg40
L-33L
sg43
L-33L
sg65
L-33L
sg38
L-33L
sg46
L-33L
sg10
L-33L
sg27
L-33L
sg51
L-33L
sg52
L-33L
sg53
L-33L
sg54
L-33L
sg16
L-33L
sg47
L-33L
sg17
L-33L
sg45
L-33L
sg68
L-33L
sg25
L-33L
sg21
L-33L
sg69
L-33L
sg42
L-33L
sg48
L-33L
sg44
L-33L
sg49
L-33L
sg24
L-33L
sg20
L-33L
sg26
L-33L
sg50
L-33L
sg29
L-33L
sg70
L-33L
sg28
L-33L
ssL187L
(dp339
g2
L-24L
sg4
L-24L
sg39
L-24L
sg5
L-24L
sg40
L-24L
sg43
L-24L
sg65
L-24L
sg38
L-24L
sg46
L-24L
sg10
L-24L
sg27
L-24L
sg51
L-24L
sg52
L-24L
sg53
L-24L
sg54
L-24L
sg16
L-24L
sg47
L-24L
sg17
L-24L
sg45
L-24L
sg68
L-24L
sg25
L-24L
sg21
L-24L
sg69
L-24L
sg42
L-24L
sg48
L-24L
sg44
L-24L
sg49
L-24L
sg24
L-24L
sg20
L-24L
sg26
L-24L
sg50
L-24L
sg29
L-24L
sg70
L-24L
sg28
L-24L
ssL188L
(dp340
g2
L-21L
sg4
L-21L
sg39
L-21L
sg5
L-21L
sg40
L-21L
sg43
L-21L
sg65
L-21L
sg38
L-21L
sg46
L-21L
sg10
L-21L
sg27
L-21L
sg51
L-21L
sg52
L-21L
sg53
L-21L
sg54
L-21L
sg16
L-21L
sg47
L-21L
sg17
L-21L
sg45
L-21L
sg68
L-21L
sg25
L-21L
sg21
L-21L
sg69
L-21L
sg42
L-21L
sg48
L-21L
sg44
L-21L
sg49
L-21L
sg24
L-21L
sg20
L-21L
sg26
L-21L
sg50
L-21L
sg29
L-21L
sg70
L-21L
sg28
L-21L
ssL189L
(dp341
g2
L-27L
sg4
L-27L
sg39
L-27L
sg5
L-27L
sg40
L-27L
sg43
L-27L
sg65
L-27L
sg38
L-27L
sg46
L-27L
sg10
L-27L
sg27
L-27L
sg51
L-27L
sg52
L-27L
sg53
L-27L
sg54
L-27L
sg16
L-27L
sg47
L-27L
sg17
L-27L
sg45
L-27L
sg68
L-27L
sg25
L-27L
sg21
L-27L
sg69
L-27L
sg42
L-27L
sg48
L-27L
sg44
L-27L
sg49
L-27L
sg24
L-27L
sg20
L-27L
sg26
L-27L
sg50
L-27L
sg29
L-27L
sg70
L-27L
sg28
L-27L
ssL190L
(dp342
g2
L-30L
sg4
L-30L
sg39
L-30L
sg5
L-30L
sg40
L-30L
sg43
L-30L
sg65
L-30L
sg38
L-30L
sg46
L-30L
sg10
L-30L
sg27
L-30L
sg51
L-30L
sg52
L-30L
sg53
L-30L
sg54
L-30L
sg16
L-30L
sg47
L-30L
sg17
L-30L
sg45
L-30L
sg68
L-30L
sg25
L-30L
sg21
L-30L
sg69
L-30L
sg42
L-30L
sg48
L-30L
sg44
L-30L
sg49
L-30L
sg24
L-30L
sg20
L-30L
sg26
L-30L
sg50
L-30L
sg29
L-30L
sg70
L-30L
sg28
L-30L
ssL191L
(dp343
g2
L-166L
sg3
L-166L
sg4
L-166L
sg5
L-166L
sg40
L-166L
sg7
L-166L
sg8
L-166L
sg9
L-166L
sg10
L-166L
sg11
L-166L
sg12
L-166L
sg13
L-166L
sg14
L-166L
sg15
L-166L
sg16
L-166L
sg17
L-166L
sg6
L-166L
sg76
L-166L
sg20
L-166L
sg21
L-166L
sg22
L-166L
sg23
L-166L
sg24
L-166L
sg25
L-166L
sg26
L-166L
sg27
L-166L
sg28
L-166L
sg29
L-166L
sg18
L-166L
sg30
L-166L
sg31
L-166L
ssL192L
(dp344
g2
L-146L
sg3
L-146L
sg4
L-146L
sg5
L-146L
sg6
L-146L
sg7
L-146L
sg8
L-146L
sg9
L-146L
sg10
L-146L
sg11
L-146L
sg12
L-146L
sg13
L-146L
sg14
L-146L
sg15
L-146L
sg16
L-146L
sg17
L-146L
sg18
L-146L
sg74
L-146L
sg20
L-146L
sg21
L-146L
sg22
L-146L
sg23
L-146L
sg24
L-146L
sg25
L-146L
sg26
L-146L
sg27
L-146L
sg28
L-146L
sg29
L-146L
sg30
L-146L
sg31
L-146L
ssL193L
(dp345
g2
L-146L
sg3
L-146L
sg4
L-146L
sg5
L-146L
sg6
L-146L
sg7
L-146L
sg8
L-146L
sg9
L-146L
sg10
L-146L
sg11
L-146L
sg12
L-146L
sg13
L-146L
sg14
L-146L
sg15
L-146L
sg16
L-146L
sg17
L-146L
sg18
L-146L
sg74
L-146L
sg20
L-146L
sg21
L-146L
sg22
L-146L
sg23
L-146L
sg24
L-146L
sg25
L-146L
sg26
L-146L
sg27
L-146L
sg28
L-146L
sg29
L-146L
sg30
L-146L
sg31
L-146L
ssL194L
(dp346
g2
L-146L
sg3
L-146L
sg4
L-146L
sg5
L-146L
sg6
L-146L
sg7
L-146L
sg8
L-146L
sg9
L-146L
sg10
L-146L
sg11
L-146L
sg12
L-146L
sg13
L-146L
sg14
L-146L
sg15
L-146L
sg16
L-146L
sg17
L-146L
sg18
L-146L
sg74
L-146L
sg20
L-146L
sg21
L-146L
sg22
L-146L
sg23
L-146L
sg24
L-146L
sg25
L-146L
sg26
L-146L
sg27
L-146L
sg28
L-146L
sg29
L-146L
sg30
L-146L
sg31
L-146L
ssL195L
(dp347
g76
L71L
sVWORD
p348
L229L
sg40
L68L
sVNUMBER
p349
L232L
ssL196L
(dp350
g74
L140L
sg274
L233L
sg275
L234L
ssL197L
(dp351
g74
L140L
sg277
L235L
sg278
L236L
ssL198L
(dp352
g43
L237L
ssL199L
(dp353
g39
L238L
ssL200L
(dp354
g74
L-146L
sg348
L-146L
ssL201L
(dp355
g2
L-173L
sg4
L-173L
sg39
L-173L
sg5
L-173L
sg40
L-173L
sg43
L-173L
sg65
L-173L
sg38
L-173L
sg46
L-173L
sg10
L-173L
sg27
L-173L
sg51
L-173L
sg52
L-173L
sg53
L-173L
sg54
L-173L
sg16
L-173L
sg47
L-173L
sg17
L-173L
sg45
L-173L
sg37
L-173L
sg25
L-173L
sg21
L-173L
sg41
L-173L
sg42
L-173L
sg48
L-173L
sg44
L-173L
sg49
L-173L
sg24
L-173L
sg20
L-173L
sg26
L-173L
sg50
L-173L
sg29
L-173L
sg55
L-173L
sg28
L-173L
ssL202L
(dp356
g74
L140L
sg9
L22L
sg13
L24L
sg11
L9L
sg12
L35L
sg31
L36L
sg14
L10L
sg15
L46L
sg22
L39L
sg30
L53L
sg6
L5L
ssL203L
(dp357
g74
L-146L
sVWORD
p358
L-146L
sVESAC
p359
L-146L
sg14
L-146L
ssL204L
(dp360
g2
L-146L
sg3
L-146L
sg4
L-146L
sg39
L-146L
sg5
L-146L
sg6
L-146L
sg7
L-146L
sg45
L-146L
sg8
L-146L
sg46
L-146L
sg9
L-146L
sg10
L-146L
sg50
L-146L
sg11
L-146L
sg12
L-146L
sg13
L-146L
sg14
L-146L
sg51
L-146L
sg15
L-146L
sg54
L-146L
sg16
L-146L
sg17
L-146L
sg18
L-146L
sg74
L-146L
sg20
L-146L
sg21
L-146L
sg48
L-146L
sg22
L-146L
sg23
L-146L
sg42
L-146L
sg43
L-146L
sg44
L-146L
sg49
L-146L
sg24
L-146L
sg25
L-146L
sg26
L-146L
sg27
L-146L
sg28
L-146L
sg29
L-146L
sg53
L-146L
sg30
L-146L
sg31
L-146L
ssL205L
(dp361
g2
L-146L
sg3
L-146L
sg4
L-146L
sg39
L-146L
sg5
L-146L
sg6
L-146L
sg7
L-146L
sg45
L-146L
sg8
L-146L
sg46
L-146L
sg9
L-146L
sg10
L-146L
sg50
L-146L
sg11
L-146L
sg12
L-146L
sg13
L-146L
sg14
L-146L
sg51
L-146L
sg15
L-146L
sg54
L-146L
sg16
L-146L
sg17
L-146L
sg18
L-146L
sg74
L-146L
sg20
L-146L
sg21
L-146L
sg48
L-146L
sg22
L-146L
sg23
L-146L
sg42
L-146L
sg43
L-146L
sg44
L-146L
sg49
L-146L
sg24
L-146L
sg25
L-146L
sg26
L-146L
sg27
L-146L
sg28
L-146L
sg29
L-146L
sg53
L-146L
sg30
L-146L
sg31
L-146L
ssL206L
(dp362
g2
L-146L
sg3
L-146L
sg4
L-146L
sg39
L-146L
sg5
L-146L
sg6
L-146L
sg7
L-146L
sg45
L-146L
sg8
L-146L
sg46
L-146L
sg9
L-146L
sg10
L-146L
sg50
L-146L
sg11
L-146L
sg12
L-146L
sg13
L-146L
sg14
L-146L
sg51
L-146L
sg15
L-146L
sg54
L-146L
sg16
L-146L
sg17
L-146L
sg18
L-146L
sg74
L-146L
sg20
L-146L
sg21
L-146L
sg48
L-146L
sg22
L-146L
sg23
L-146L
sg42
L-146L
sg43
L-146L
sg44
L-146L
sg49
L-146L
sg24
L-146L
sg25
L-146L
sg26
L-146L
sg27
L-146L
sg28
L-146L
sg29
L-146L
sg53
L-146L
sg30
L-146L
sg31
L-146L
ssL207L
(dp363
g2
L-146L
sg3
L-146L
sg4
L-146L
sg5
L-146L
sg6
L-146L
sg7
L-146L
sg8
L-146L
sg9
L-146L
sg10
L-146L
sg11
L-146L
sg12
L-146L
sg13
L-146L
sg14
L-146L
sg15
L-146L
sg16
L-146L
sg17
L-146L
sg18
L-146L
sg74
L-146L
sg20
L-146L
sg21
L-146L
sg22
L-146L
sg23
L-146L
sg24
L-146L
sg25
L-146L
sg26
L-146L
sg27
L-146L
sg28
L-146L
sg29
L-146L
sg30
L-146L
sg31
L-146L
ssL208L
(dp364
g2
L-146L
sg3
L-146L
sg4
L-146L
sg5
L-146L
sg6
L-146L
sg7
L-146L
sg8
L-146L
sg9
L-146L
sg10
L-146L
sg11
L-146L
sg12
L-146L
sg13
L-146L
sg14
L-146L
sg15
L-146L
sg16
L-146L
sg17
L-146L
sg18
L-146L
sg74
L-146L
sg20
L-146L
sg21
L-146L
sg22
L-146L
sg23
L-146L
sg24
L-146L
sg25
L-146L
sg26
L-146L
sg27
L-146L
sg28
L-146L
sg29
L-146L
sg30
L-146L
sg31
L-146L
ssL209L
(dp365
g74
L-146L
sg9
L-146L
sg13
L-146L
sg11
L-146L
sg12
L-146L
sg31
L-146L
sg14
L-146L
sg15
L-146L
sg22
L-146L
sg30
L-146L
sg6
L-146L
ssL210L
(dp366
g2
L1L
sg38
L-100L
sg39
L-100L
sg5
L4L
sg40
L-100L
sg43
L-100L
sg26
L29L
sg4
L2L
sg46
L-100L
sg10
L23L
sg50
L-100L
sg51
L-100L
sg52
L-100L
sg53
L-100L
sg54
L-100L
sg16
L12L
sg47
L-100L
sg17
L37L
sg37
L-100L
sg20
L52L
sg21
L47L
sg41
L-100L
sg42
L-100L
sg48
L-100L
sg44
L-100L
sg49
L-100L
sg24
L51L
sg25
L18L
sg45
L-100L
sg27
L30L
sg29
L31L
sg55
L-100L
sg84
L77L
ssL211L
(dp367
g68
L-99L
sg38
L-99L
sg39
L-99L
sg40
L-99L
sg69
L-99L
sg42
L-99L
sg43
L-99L
sg44
L-99L
sg45
L-99L
sg46
L-99L
sg70
L-99L
sg48
L-99L
sg49
L-99L
sg50
L-99L
sg51
L-99L
sg52
L-99L
sg53
L-99L
sg54
L-99L
sg47
L-99L
ssL212L
(dp368
g2
L1L
sg38
L-106L
sg39
L-106L
sg5
L4L
sg40
L-106L
sg43
L-106L
sg26
L29L
sg4
L2L
sg46
L-106L
sg10
L23L
sg50
L-106L
sg51
L-106L
sg52
L-106L
sg53
L-106L
sg54
L-106L
sg16
L12L
sg47
L-106L
sg17
L37L
sg68
L-106L
sg20
L52L
sg21
L47L
sg69
L-106L
sg42
L-106L
sg48
L-106L
sg44
L-106L
sg49
L-106L
sg24
L51L
sg25
L18L
sg45
L-106L
sg27
L30L
sg29
L31L
sg70
L-106L
sg84
L77L
ssL213L
(dp369
g42
L255L
sg45
L253L
sg44
L256L
ssL214L
(dp370
g74
L140L
sg301
L257L
sg302
L258L
ssL215L
(dp371
g2
L-146L
sg3
L-146L
sg4
L-146L
sg5
L-146L
sg6
L-146L
sg7
L-146L
sg8
L-146L
sg9
L-146L
sg10
L-146L
sg11
L-146L
sg12
L-146L
sg13
L-146L
sg14
L-146L
sg15
L-146L
sg16
L-146L
sg17
L-146L
sg18
L-146L
sg74
L-146L
sg20
L-146L
sg21
L-146L
sg22
L-146L
sg23
L-146L
sg24
L-146L
sg25
L-146L
sg26
L-146L
sg27
L-146L
sg28
L-146L
sg29
L-146L
sg30
L-146L
sg31
L-146L
ssL216L
(dp372
g2
L-146L
sg3
L-146L
sg4
L-146L
sg5
L-146L
sg6
L-146L
sg7
L-146L
sg8
L-146L
sg9
L-146L
sg10
L-146L
sg11
L-146L
sg12
L-146L
sg13
L-146L
sg14
L-146L
sg15
L-146L
sg16
L-146L
sg17
L-146L
sg18
L-146L
sg74
L-146L
sg20
L-146L
sg21
L-146L
sg22
L-146L
sg23
L-146L
sg24
L-146L
sg25
L-146L
sg26
L-146L
sg27
L-146L
sg28
L-146L
sg29
L-146L
sg30
L-146L
sg31
L-146L
ssL217L
(dp373
g348
L229L
ssL218L
(dp374
g37
L-161L
sg38
L102L
sg39
L-161L
sg40
L-161L
sg41
L-161L
sg42
L-161L
sg43
L-161L
sg44
L-161L
sg45
L-161L
sg46
L-161L
sg47
L103L
sg48
L-161L
sg49
L-161L
sg50
L-161L
sg51
L-161L
sg52
L-161L
sg53
L-161L
sg54
L-161L
sg55
L-161L
ssL219L
(dp375
g37
L-162L
sg38
L102L
sg39
L-162L
sg40
L-162L
sg41
L-162L
sg42
L-162L
sg43
L-162L
sg44
L-162L
sg45
L-162L
sg46
L-162L
sg47
L103L
sg48
L-162L
sg49
L-162L
sg50
L-162L
sg51
L-162L
sg52
L-162L
sg53
L-162L
sg54
L-162L
sg55
L-162L
ssL220L
(dp376
VDONE
p377
L263L
ssL221L
(dp378
g2
L1L
sg3
L19L
sg4
L2L
sg5
L4L
sg6
L5L
sg7
L21L
sg8
L7L
sg9
L22L
sg10
L23L
sg11
L9L
sg12
L35L
sg13
L24L
sg14
L10L
sg15
L46L
sg16
L12L
sg17
L37L
sg18
L13L
sg20
L52L
sg21
L47L
sg22
L39L
sg23
L48L
sg24
L51L
sg25
L18L
sg26
L29L
sg27
L30L
sg28
L32L
sg29
L31L
sg30
L53L
sg31
L36L
ssL222L
(dp379
g2
L1L
sg3
L19L
sg4
L2L
sg5
L4L
sg6
L5L
sg7
L21L
sg8
L7L
sg9
L22L
sg10
L23L
sg11
L9L
sg12
L35L
sg13
L24L
sg14
L10L
sg15
L46L
sg16
L12L
sg17
L37L
sg18
L13L
sg20
L52L
sg21
L47L
sg22
L39L
sg23
L48L
sg24
L51L
sg25
L18L
sg26
L29L
sg27
L30L
sg28
L32L
sg29
L31L
sg30
L53L
sg31
L36L
ssL223L
(dp380
g52
L-152L
sg37
L-152L
sg41
L-152L
sg40
L-152L
sg55
L-152L
ssL224L
(dp381
g52
L-151L
sg37
L-151L
sg41
L-151L
sg40
L-151L
sg55
L-151L
ssL225L
(dp382
g290
L264L
ssL226L
(dp383
VDONE
p384
L265L
ssL227L
(dp385
g39
L266L
ssL228L
(dp386
g74
L-146L
sg172
L-146L
sg173
L-146L
ssL229L
(dp387
g76
L-5L
sVWORD
p388
L-5L
sg40
L-5L
sg51
L-5L
ssL230L
(dp389
g76
L-146L
sg388
L-146L
sg40
L68L
ssL231L
(dp390
g76
L-146L
sg40
L68L
sVNUMBER
p391
L-146L
ssL232L
(dp392
g76
L-167L
sg40
L-167L
sg391
L-167L
ssL233L
(dp393
g2
L-146L
sg3
L-146L
sg4
L-146L
sg5
L-146L
sg6
L-146L
sg7
L-146L
sg8
L-146L
sg9
L-146L
sg10
L-146L
sg11
L-146L
sg12
L-146L
sg13
L-146L
sg14
L-146L
sg15
L-146L
sg16
L-146L
sg17
L-146L
sg18
L-146L
sg74
L-146L
sg20
L-146L
sg21
L-146L
sg22
L-146L
sg23
L-146L
sg24
L-146L
sg25
L-146L
sg26
L-146L
sg27
L-146L
sg28
L-146L
sg29
L-146L
sg30
L-146L
sg31
L-146L
ssL234L
(dp394
g2
L-146L
sg3
L-146L
sg4
L-146L
sg5
L-146L
sg6
L-146L
sg7
L-146L
sg8
L-146L
sg9
L-146L
sg10
L-146L
sg11
L-146L
sg12
L-146L
sg13
L-146L
sg14
L-146L
sg15
L-146L
sg16
L-146L
sg17
L-146L
sg18
L-146L
sg74
L-146L
sg20
L-146L
sg21
L-146L
sg22
L-146L
sg23
L-146L
sg24
L-146L
sg25
L-146L
sg26
L-146L
sg27
L-146L
sg28
L-146L
sg29
L-146L
sg30
L-146L
sg31
L-146L
ssL235L
(dp395
g2
L-146L
sg3
L-146L
sg4
L-146L
sg5
L-146L
sg6
L-146L
sg7
L-146L
sg8
L-146L
sg9
L-146L
sg10
L-146L
sg11
L-146L
sg12
L-146L
sg13
L-146L
sg14
L-146L
sg15
L-146L
sg16
L-146L
sg17
L-146L
sg18
L-146L
sg74
L-146L
sg20
L-146L
sg21
L-146L
sg22
L-146L
sg23
L-146L
sg24
L-146L
sg25
L-146L
sg26
L-146L
sg27
L-146L
sg28
L-146L
sg29
L-146L
sg30
L-146L
sg31
L-146L
ssL236L
(dp396
g2
L-146L
sg3
L-146L
sg4
L-146L
sg5
L-146L
sg6
L-146L
sg7
L-146L
sg8
L-146L
sg9
L-146L
sg10
L-146L
sg11
L-146L
sg12
L-146L
sg13
L-146L
sg14
L-146L
sg15
L-146L
sg16
L-146L
sg17
L-146L
sg18
L-146L
sg74
L-146L
sg20
L-146L
sg21
L-146L
sg22
L-146L
sg23
L-146L
sg24
L-146L
sg25
L-146L
sg26
L-146L
sg27
L-146L
sg28
L-146L
sg29
L-146L
sg30
L-146L
sg31
L-146L
ssL237L
(dp397
g2
L-86L
sg4
L-86L
sg39
L-86L
sg5
L-86L
sg40
L-86L
sg43
L-86L
sg38
L-86L
sg46
L-86L
sg10
L-86L
sg27
L-86L
sg51
L-86L
sg52
L-86L
sg53
L-86L
sg54
L-86L
sg16
L-86L
sg47
L-86L
sg17
L-86L
sg45
L-86L
sg37
L-86L
sg25
L-86L
sg21
L-86L
sg41
L-86L
sg42
L-86L
sg48
L-86L
sg44
L-86L
sg49
L-86L
sg24
L-86L
sg20
L-86L
sg26
L-86L
sg50
L-86L
sg29
L-86L
sg55
L-86L
sg84
L-86L
ssL238L
(dp398
g2
L-87L
sg4
L-87L
sg39
L-87L
sg5
L-87L
sg40
L-87L
sg43
L-87L
sg38
L-87L
sg46
L-87L
sg10
L-87L
sg27
L-87L
sg51
L-87L
sg52
L-87L
sg53
L-87L
sg54
L-87L
sg16
L-87L
sg47
L-87L
sg17
L-87L
sg45
L-87L
sg37
L-87L
sg25
L-87L
sg21
L-87L
sg41
L-87L
sg42
L-87L
sg48
L-87L
sg44
L-87L
sg49
L-87L
sg24
L-87L
sg20
L-87L
sg26
L-87L
sg50
L-87L
sg29
L-87L
sg55
L-87L
sg84
L-87L
ssL239L
(dp399
g74
L140L
sg348
L229L
ssL240L
(dp400
g2
L-171L
sg4
L-171L
sg39
L-171L
sg5
L-171L
sg40
L-171L
sg43
L-171L
sg65
L-171L
sg38
L-171L
sg46
L-171L
sg10
L-171L
sg27
L-171L
sg51
L-171L
sg52
L-171L
sg53
L-171L
sg54
L-171L
sg16
L-171L
sg47
L-171L
sg17
L-171L
sg45
L-171L
sg37
L-171L
sg25
L-171L
sg21
L-171L
sg41
L-171L
sg42
L-171L
sg48
L-171L
sg44
L-171L
sg49
L-171L
sg24
L-171L
sg20
L-171L
sg26
L-171L
sg50
L-171L
sg29
L-171L
sg55
L-171L
sg28
L-171L
ssL241L
(dp401
g68
L-97L
sg38
L-97L
sg39
L-97L
sg40
L-97L
sg69
L-97L
sg42
L-97L
sg43
L-97L
sg44
L-97L
sg45
L-97L
sg46
L-97L
sg70
L-97L
sg48
L-97L
sg49
L-97L
sg50
L-97L
sg51
L-97L
sg52
L-97L
sg53
L-97L
sg54
L-97L
sg47
L-97L
ssL242L
(dp402
g74
L140L
sg358
L280L
sg359
L278L
sg14
L279L
ssL243L
(dp403
g53
L281L
sg50
L-117L
sg54
L282L
sg48
L283L
ssL244L
(dp404
g50
L284L
ssL245L
(dp405
g74
L-146L
sg358
L-146L
sVESAC
p406
L-146L
sg14
L-146L
ssL246L
(dp407
g2
L1L
sg3
L19L
sg4
L2L
sg39
L-134L
sg5
L4L
sg6
L5L
sg43
L-134L
sg27
L30L
sg8
L7L
sg7
L21L
sg26
L29L
sg46
L-134L
sg9
L22L
sg10
L23L
sg50
L-134L
sg12
L35L
sg31
L36L
sg14
L10L
sg51
L-134L
sg53
L-134L
sg54
L-134L
sg16
L12L
sg17
L37L
sg18
L13L
sg74
L140L
sg20
L52L
sg21
L47L
sg22
L39L
sg23
L48L
sg42
L-134L
sg48
L-134L
sg44
L-134L
sg49
L-134L
sg24
L51L
sg25
L18L
sg45
L-134L
sg11
L9L
sg15
L46L
sg30
L53L
sg29
L31L
sg28
L32L
sg13
L24L
ssL247L
(dp408
g2
L1L
sg3
L19L
sg4
L2L
sg39
L-135L
sg5
L4L
sg6
L5L
sg43
L-135L
sg27
L30L
sg8
L7L
sg7
L21L
sg26
L29L
sg46
L-135L
sg9
L22L
sg10
L23L
sg50
L-135L
sg12
L35L
sg31
L36L
sg14
L10L
sg51
L-135L
sg53
L-135L
sg54
L-135L
sg16
L12L
sg17
L37L
sg18
L13L
sg74
L140L
sg20
L52L
sg21
L47L
sg22
L39L
sg23
L48L
sg42
L-135L
sg48
L-135L
sg44
L-135L
sg49
L-135L
sg24
L51L
sg25
L18L
sg45
L-135L
sg11
L9L
sg15
L46L
sg30
L53L
sg29
L31L
sg28
L32L
sg13
L24L
ssL248L
(dp409
g2
L1L
sg3
L19L
sg4
L2L
sg39
L-136L
sg5
L4L
sg6
L5L
sg43
L-136L
sg27
L30L
sg8
L7L
sg7
L21L
sg26
L29L
sg46
L-136L
sg9
L22L
sg10
L23L
sg50
L-136L
sg12
L35L
sg31
L36L
sg14
L10L
sg51
L-136L
sg53
L-136L
sg54
L-136L
sg16
L12L
sg17
L37L
sg18
L13L
sg74
L140L
sg20
L52L
sg21
L47L
sg22
L39L
sg23
L48L
sg42
L-136L
sg48
L-136L
sg44
L-136L
sg49
L-136L
sg24
L51L
sg25
L18L
sg45
L-136L
sg11
L9L
sg15
L46L
sg30
L53L
sg29
L31L
sg28
L32L
sg13
L24L
ssL249L
(dp410
g2
L1L
sg3
L19L
sg4
L2L
sg5
L4L
sg6
L5L
sg7
L21L
sg8
L7L
sg9
L22L
sg10
L23L
sg11
L9L
sg12
L35L
sg13
L24L
sg14
L10L
sg15
L46L
sg16
L12L
sg17
L37L
sg18
L13L
sg74
L140L
sg20
L52L
sg21
L47L
sg22
L39L
sg23
L48L
sg24
L51L
sg25
L18L
sg26
L29L
sg27
L30L
sg28
L32L
sg29
L31L
sg30
L53L
sg31
L36L
ssL250L
(dp411
g2
L1L
sg3
L19L
sg4
L2L
sg5
L4L
sg6
L5L
sg7
L21L
sg8
L7L
sg9
L22L
sg10
L23L
sg11
L9L
sg12
L35L
sg13
L24L
sg14
L10L
sg15
L46L
sg16
L12L
sg17
L37L
sg18
L13L
sg74
L140L
sg20
L52L
sg21
L47L
sg22
L39L
sg23
L48L
sg24
L51L
sg25
L18L
sg26
L29L
sg27
L30L
sg28
L32L
sg29
L31L
sg30
L53L
sg31
L36L
ssL251L
(dp412
g74
L140L
sg9
L22L
sg13
L24L
sg11
L9L
sg12
L35L
sg31
L36L
sg14
L10L
sg15
L46L
sg22
L39L
sg30
L53L
sg6
L5L
ssL252L
(dp413
g2
L1L
sg38
L-101L
sg39
L-101L
sg5
L4L
sg40
L-101L
sg43
L-101L
sg26
L29L
sg4
L2L
sg46
L-101L
sg10
L23L
sg50
L-101L
sg51
L-101L
sg52
L-101L
sg53
L-101L
sg54
L-101L
sg16
L12L
sg47
L-101L
sg17
L37L
sg37
L-101L
sg20
L52L
sg21
L47L
sg41
L-101L
sg42
L-101L
sg48
L-101L
sg44
L-101L
sg49
L-101L
sg24
L51L
sg25
L18L
sg45
L-101L
sg27
L30L
sg29
L31L
sg55
L-101L
sg84
L77L
ssL253L
(dp414
g2
L-108L
sg4
L-108L
sg39
L-108L
sg5
L-108L
sg40
L-108L
sg43
L-108L
sg38
L-108L
sg46
L-108L
sg10
L-108L
sg27
L-108L
sg51
L-108L
sg52
L-108L
sg53
L-108L
sg54
L-108L
sg16
L-108L
sg47
L-108L
sg17
L-108L
sg45
L-108L
sg68
L-108L
sg25
L-108L
sg21
L-108L
sg69
L-108L
sg42
L-108L
sg48
L-108L
sg44
L-108L
sg49
L-108L
sg24
L-108L
sg20
L-108L
sg26
L-108L
sg50
L-108L
sg29
L-108L
sg70
L-108L
sg84
L-108L
ssL254L
(dp415
g170
L293L
ssL255L
(dp416
g2
L-146L
sg3
L-146L
sg4
L-146L
sg5
L-146L
sg6
L-146L
sg7
L-146L
sg8
L-146L
sg9
L-146L
sg10
L-146L
sg11
L-146L
sg12
L-146L
sg13
L-146L
sg14
L-146L
sg15
L-146L
sg16
L-146L
sg17
L-146L
sg18
L-146L
sg74
L-146L
sg20
L-146L
sg21
L-146L
sg22
L-146L
sg23
L-146L
sg24
L-146L
sg25
L-146L
sg26
L-146L
sg27
L-146L
sg28
L-146L
sg29
L-146L
sg30
L-146L
sg31
L-146L
ssL256L
(dp417
g2
L-146L
sg3
L-146L
sg4
L-146L
sg5
L-146L
sg6
L-146L
sg7
L-146L
sg8
L-146L
sg9
L-146L
sg10
L-146L
sg11
L-146L
sg12
L-146L
sg13
L-146L
sg14
L-146L
sg15
L-146L
sg16
L-146L
sg17
L-146L
sg18
L-146L
sg74
L-146L
sg20
L-146L
sg21
L-146L
sg22
L-146L
sg23
L-146L
sg24
L-146L
sg25
L-146L
sg26
L-146L
sg27
L-146L
sg28
L-146L
sg29
L-146L
sg30
L-146L
sg31
L-146L
ssL257L
(dp418
g2
L-146L
sg3
L-146L
sg4
L-146L
sg5
L-146L
sg6
L-146L
sg7
L-146L
sg8
L-146L
sg9
L-146L
sg10
L-146L
sg11
L-146L
sg12
L-146L
sg13
L-146L
sg14
L-146L
sg15
L-146L
sg16
L-146L
sg17
L-146L
sg18
L-146L
sg74
L-146L
sg20
L-146L
sg21
L-146L
sg22
L-146L
sg23
L-146L
sg24
L-146L
sg25
L-146L
sg26
L-146L
sg27
L-146L
sg28
L-146L
sg29
L-146L
sg30
L-146L
sg31
L-146L
ssL258L
(dp419
g2
L-146L
sg3
L-146L
sg4
L-146L
sg5
L-146L
sg6
L-146L
sg7
L-146L
sg8
L-146L
sg9
L-146L
sg10
L-146L
sg11
L-146L
sg12
L-146L
sg13
L-146L
sg14
L-146L
sg15
L-146L
sg16
L-146L
sg17
L-146L
sg18
L-146L
sg74
L-146L
sg20
L-146L
sg21
L-146L
sg22
L-146L
sg23
L-146L
sg24
L-146L
sg25
L-146L
sg26
L-146L
sg27
L-146L
sg28
L-146L
sg29
L-146L
sg30
L-146L
sg31
L-146L
ssL259L
(dp420
g287
L298L
ssL260L
(dp421
g2
L1L
sg3
L19L
sg4
L2L
sg5
L4L
sg6
L5L
sg7
L21L
sg8
L7L
sg9
L22L
sg10
L23L
sg11
L9L
sg12
L35L
sg13
L24L
sg14
L10L
sg15
L46L
sg16
L12L
sg17
L37L
sg18
L13L
sg74
L140L
sg20
L52L
sg21
L47L
sg22
L39L
sg23
L48L
sg24
L51L
sg25
L18L
sg26
L29L
sg27
L30L
sg28
L32L
sg29
L31L
sg30
L53L
sg31
L36L
ssL261L
(dp422
g39
L300L
ssL262L
(dp423
g76
L-146L
sg388
L-146L
sg40
L68L
ssL263L
(dp424
g2
L-65L
sg4
L-65L
sg39
L-65L
sg5
L-65L
sg40
L-65L
sg43
L-65L
sg38
L-65L
sg46
L-65L
sg10
L-65L
sg27
L-65L
sg51
L-65L
sg52
L-65L
sg53
L-65L
sg54
L-65L
sg16
L-65L
sg47
L-65L
sg17
L-65L
sg45
L-65L
sg68
L-65L
sg25
L-65L
sg21
L-65L
sg69
L-65L
sg42
L-65L
sg48
L-65L
sg44
L-65L
sg49
L-65L
sg24
L-65L
sg20
L-65L
sg26
L-65L
sg50
L-65L
sg29
L-65L
sg70
L-65L
sg84
L-65L
ssL264L
(dp425
g2
L-66L
sg4
L-66L
sg39
L-66L
sg5
L-66L
sg40
L-66L
sg43
L-66L
sg38
L-66L
sg46
L-66L
sg10
L-66L
sg27
L-66L
sg51
L-66L
sg52
L-66L
sg53
L-66L
sg54
L-66L
sg16
L-66L
sg47
L-66L
sg17
L-66L
sg45
L-66L
sg68
L-66L
sg25
L-66L
sg21
L-66L
sg69
L-66L
sg42
L-66L
sg48
L-66L
sg44
L-66L
sg49
L-66L
sg24
L-66L
sg20
L-66L
sg26
L-66L
sg50
L-66L
sg29
L-66L
sg70
L-66L
sg84
L-66L
ssL265L
(dp426
g2
L-74L
sg4
L-74L
sg39
L-74L
sg5
L-74L
sg40
L-74L
sg43
L-74L
sg38
L-74L
sg46
L-74L
sg10
L-74L
sg27
L-74L
sg51
L-74L
sg52
L-74L
sg53
L-74L
sg54
L-74L
sg16
L-74L
sg47
L-74L
sg17
L-74L
sg45
L-74L
sg37
L-74L
sg25
L-74L
sg21
L-74L
sg41
L-74L
sg42
L-74L
sg48
L-74L
sg44
L-74L
sg49
L-74L
sg24
L-74L
sg20
L-74L
sg26
L-74L
sg50
L-74L
sg29
L-74L
sg55
L-74L
sg84
L-74L
ssL266L
(dp427
g2
L-75L
sg4
L-75L
sg39
L-75L
sg5
L-75L
sg40
L-75L
sg43
L-75L
sg38
L-75L
sg46
L-75L
sg10
L-75L
sg27
L-75L
sg51
L-75L
sg52
L-75L
sg53
L-75L
sg54
L-75L
sg16
L-75L
sg47
L-75L
sg17
L-75L
sg45
L-75L
sg37
L-75L
sg25
L-75L
sg21
L-75L
sg41
L-75L
sg42
L-75L
sg48
L-75L
sg44
L-75L
sg49
L-75L
sg24
L-75L
sg20
L-75L
sg26
L-75L
sg50
L-75L
sg29
L-75L
sg55
L-75L
sg84
L-75L
ssL267L
(dp428
g74
L140L
sg172
L302L
sg173
L303L
ssL268L
(dp429
g74
L-146L
sVDO
p430
L-146L
sVLBRACE
p431
L-146L
ssL269L
(dp432
g74
L140L
sg388
L305L
ssL270L
(dp433
g74
L-146L
sVDO
p434
L-146L
sVLBRACE
p435
L-146L
ssL271L
(dp436
g74
L140L
sg391
L307L
ssL272L
(dp437
g167
L308L
ssL273L
(dp438
g39
L309L
ssL274L
(dp439
VDONE
p440
L310L
ssL275L
(dp441
g39
L311L
ssL276L
(dp442
g74
L-146L
sg388
L-146L
sg51
L-146L
ssL277L
(dp443
g38
L314L
sg51
L313L
ssL278L
(dp444
g2
L-94L
sg4
L-94L
sg39
L-94L
sg5
L-94L
sg40
L-94L
sg43
L-94L
sg38
L-94L
sg46
L-94L
sg10
L-94L
sg27
L-94L
sg51
L-94L
sg52
L-94L
sg53
L-94L
sg54
L-94L
sg16
L-94L
sg47
L-94L
sg17
L-94L
sg45
L-94L
sg37
L-94L
sg25
L-94L
sg21
L-94L
sg41
L-94L
sg42
L-94L
sg48
L-94L
sg44
L-94L
sg49
L-94L
sg24
L-94L
sg20
L-94L
sg26
L-94L
sg50
L-94L
sg29
L-94L
sg55
L-94L
sg84
L-94L
ssL279L
(dp445
g358
L280L
ssL280L
(dp446
g38
L-129L
sg51
L-129L
ssL281L
(dp447
g74
L-123L
sg358
L-123L
sg406
L-123L
sg14
L-123L
ssL282L
(dp448
g74
L-125L
sg358
L-125L
sg406
L-125L
sg14
L-125L
ssL283L
(dp449
g74
L-127L
sg358
L-127L
sg406
L-127L
sg14
L-127L
ssL284L
(dp450
g2
L-96L
sg4
L-96L
sg39
L-96L
sg5
L-96L
sg40
L-96L
sg43
L-96L
sg38
L-96L
sg46
L-96L
sg10
L-96L
sg27
L-96L
sg51
L-96L
sg52
L-96L
sg53
L-96L
sg54
L-96L
sg16
L-96L
sg47
L-96L
sg17
L-96L
sg45
L-96L
sg37
L-96L
sg25
L-96L
sg21
L-96L
sg41
L-96L
sg42
L-96L
sg48
L-96L
sg44
L-96L
sg49
L-96L
sg24
L-96L
sg20
L-96L
sg26
L-96L
sg50
L-96L
sg29
L-96L
sg55
L-96L
sg84
L-96L
ssL285L
(dp451
g74
L140L
sg358
L280L
sg406
L316L
sg14
L279L
ssL286L
(dp452
VSEMI_SEMI
p453
L317L
sg50
L-118L
sVSEMI_AND
p454
L318L
sVSEMI_SEMI_AND
p455
L319L
ssL287L
(dp456
g68
L-141L
sg39
L-141L
sg40
L-141L
sg43
L-141L
sg42
L-141L
sg69
L207L
sg44
L-141L
sg45
L-141L
sg46
L-141L
sg48
L-141L
sg49
L-141L
sg50
L-141L
sg51
L-141L
sg52
L-141L
sg53
L-141L
sg54
L-141L
sg70
L208L
ssL288L
(dp457
g68
L-139L
sg39
L-139L
sg40
L-139L
sg43
L-139L
sg42
L-139L
sg69
L207L
sg44
L-139L
sg45
L-139L
sg46
L-139L
sg48
L-139L
sg49
L-139L
sg50
L-139L
sg51
L-139L
sg52
L-139L
sg53
L-139L
sg54
L-139L
sg70
L208L
ssL289L
(dp458
g68
L-140L
sg39
L-140L
sg40
L-140L
sg43
L-140L
sg42
L-140L
sg69
L207L
sg44
L-140L
sg45
L-140L
sg46
L-140L
sg48
L-140L
sg49
L-140L
sg50
L-140L
sg51
L-140L
sg52
L-140L
sg53
L-140L
sg54
L-140L
sg70
L208L
ssL290L
(dp459
g68
L-138L
sg39
L-138L
sg40
L-138L
sg43
L-138L
sg42
L-138L
sg69
L-138L
sg44
L-138L
sg45
L-138L
sg46
L-138L
sg48
L-138L
sg49
L-138L
sg50
L-138L
sg51
L-138L
sg52
L-138L
sg53
L-138L
sg54
L-138L
sg70
L-138L
ssL291L
(dp460
g68
L-137L
sg39
L-137L
sg40
L-137L
sg43
L-137L
sg42
L-137L
sg69
L-137L
sg44
L-137L
sg45
L-137L
sg46
L-137L
sg48
L-137L
sg49
L-137L
sg50
L-137L
sg51
L-137L
sg52
L-137L
sg53
L-137L
sg54
L-137L
sg70
L-137L
ssL292L
(dp461
g68
L-98L
sg38
L-98L
sg39
L-98L
sg40
L-98L
sg69
L-98L
sg42
L-98L
sg43
L-98L
sg44
L-98L
sg45
L-98L
sg46
L-98L
sg70
L-98L
sg48
L-98L
sg49
L-98L
sg50
L-98L
sg51
L-98L
sg52
L-98L
sg53
L-98L
sg54
L-98L
sg47
L-98L
ssL293L
(dp462
g2
L-110L
sg4
L-110L
sg39
L-110L
sg5
L-110L
sg40
L-110L
sg43
L-110L
sg38
L-110L
sg46
L-110L
sg10
L-110L
sg27
L-110L
sg51
L-110L
sg52
L-110L
sg53
L-110L
sg54
L-110L
sg16
L-110L
sg47
L-110L
sg17
L-110L
sg45
L-110L
sg68
L-110L
sg25
L-110L
sg21
L-110L
sg69
L-110L
sg42
L-110L
sg48
L-110L
sg44
L-110L
sg49
L-110L
sg24
L-110L
sg20
L-110L
sg26
L-110L
sg50
L-110L
sg29
L-110L
sg70
L-110L
sg84
L-110L
ssL294L
(dp463
g291
L323L
ssL295L
(dp464
VFI
p465
L324L
ssL296L
(dp466
VDONE
p467
L325L
ssL297L
(dp468
g39
L326L
ssL298L
(dp469
g2
L-88L
sg4
L-88L
sg39
L-88L
sg5
L-88L
sg40
L-88L
sg43
L-88L
sg38
L-88L
sg46
L-88L
sg10
L-88L
sg27
L-88L
sg51
L-88L
sg52
L-88L
sg53
L-88L
sg54
L-88L
sg16
L-88L
sg47
L-88L
sg17
L-88L
sg45
L-88L
sg68
L-88L
sg25
L-88L
sg21
L-88L
sg69
L-88L
sg42
L-88L
sg48
L-88L
sg44
L-88L
sg49
L-88L
sg24
L-88L
sg20
L-88L
sg26
L-88L
sg50
L-88L
sg29
L-88L
sg70
L-88L
sg84
L-88L
ssL299L
(dp470
VNEWLINE
p471
L327L
sg52
L328L
sg69
L207L
sg40
L329L
sg70
L208L
ssL300L
(dp472
g2
L-89L
sg4
L-89L
sg39
L-89L
sg5
L-89L
sg40
L-89L
sg43
L-89L
sg38
L-89L
sg46
L-89L
sg10
L-89L
sg27
L-89L
sg51
L-89L
sg52
L-89L
sg53
L-89L
sg54
L-89L
sg16
L-89L
sg47
L-89L
sg17
L-89L
sg45
L-89L
sg68
L-89L
sg25
L-89L
sg21
L-89L
sg69
L-89L
sg42
L-89L
sg48
L-89L
sg44
L-89L
sg49
L-89L
sg24
L-89L
sg20
L-89L
sg26
L-89L
sg50
L-89L
sg29
L-89L
sg70
L-89L
sg84
L-89L
ssL301L
(dp473
g74
L-146L
sg288
L-146L
sVLBRACE
p474
L-146L
ssL302L
(dp475
g2
L-146L
sg3
L-146L
sg4
L-146L
sg5
L-146L
sg6
L-146L
sg7
L-146L
sg8
L-146L
sg9
L-146L
sg10
L-146L
sg11
L-146L
sg12
L-146L
sg13
L-146L
sg14
L-146L
sg15
L-146L
sg16
L-146L
sg17
L-146L
sg18
L-146L
sg74
L-146L
sg20
L-146L
sg21
L-146L
sg22
L-146L
sg23
L-146L
sg24
L-146L
sg25
L-146L
sg26
L-146L
sg27
L-146L
sg28
L-146L
sg29
L-146L
sg30
L-146L
sg31
L-146L
ssL303L
(dp476
g2
L-146L
sg3
L-146L
sg4
L-146L
sg5
L-146L
sg6
L-146L
sg7
L-146L
sg8
L-146L
sg9
L-146L
sg10
L-146L
sg11
L-146L
sg12
L-146L
sg13
L-146L
sg14
L-146L
sg15
L-146L
sg16
L-146L
sg17
L-146L
sg18
L-146L
sg74
L-146L
sg20
L-146L
sg21
L-146L
sg22
L-146L
sg23
L-146L
sg24
L-146L
sg25
L-146L
sg26
L-146L
sg27
L-146L
sg28
L-146L
sg29
L-146L
sg30
L-146L
sg31
L-146L
ssL304L
(dp477
g74
L140L
sg430
L333L
sg431
L334L
ssL305L
(dp478
g76
L-6L
sg388
L-6L
sg40
L-6L
sg51
L-6L
ssL306L
(dp479
g74
L140L
sg434
L335L
sg435
L336L
ssL307L
(dp480
g76
L-168L
sg40
L-168L
sg391
L-168L
ssL308L
(dp481
g2
L-76L
sg4
L-76L
sg39
L-76L
sg5
L-76L
sg40
L-76L
sg43
L-76L
sg38
L-76L
sg46
L-76L
sg10
L-76L
sg27
L-76L
sg51
L-76L
sg52
L-76L
sg53
L-76L
sg54
L-76L
sg16
L-76L
sg47
L-76L
sg17
L-76L
sg45
L-76L
sg37
L-76L
sg25
L-76L
sg21
L-76L
sg41
L-76L
sg42
L-76L
sg48
L-76L
sg44
L-76L
sg49
L-76L
sg24
L-76L
sg20
L-76L
sg26
L-76L
sg50
L-76L
sg29
L-76L
sg55
L-76L
sg84
L-76L
ssL309L
(dp482
g2
L-77L
sg4
L-77L
sg39
L-77L
sg5
L-77L
sg40
L-77L
sg43
L-77L
sg38
L-77L
sg46
L-77L
sg10
L-77L
sg27
L-77L
sg51
L-77L
sg52
L-77L
sg53
L-77L
sg54
L-77L
sg16
L-77L
sg47
L-77L
sg17
L-77L
sg45
L-77L
sg37
L-77L
sg25
L-77L
sg21
L-77L
sg41
L-77L
sg42
L-77L
sg48
L-77L
sg44
L-77L
sg49
L-77L
sg24
L-77L
sg20
L-77L
sg26
L-77L
sg50
L-77L
sg29
L-77L
sg55
L-77L
sg84
L-77L
ssL310L
(dp483
g2
L-84L
sg4
L-84L
sg39
L-84L
sg5
L-84L
sg40
L-84L
sg43
L-84L
sg38
L-84L
sg46
L-84L
sg10
L-84L
sg27
L-84L
sg51
L-84L
sg52
L-84L
sg53
L-84L
sg54
L-84L
sg16
L-84L
sg47
L-84L
sg17
L-84L
sg45
L-84L
sg37
L-84L
sg25
L-84L
sg21
L-84L
sg41
L-84L
sg42
L-84L
sg48
L-84L
sg44
L-84L
sg49
L-84L
sg24
L-84L
sg20
L-84L
sg26
L-84L
sg50
L-84L
sg29
L-84L
sg55
L-84L
sg84
L-84L
ssL311L
(dp484
g2
L-85L
sg4
L-85L
sg39
L-85L
sg5
L-85L
sg40
L-85L
sg43
L-85L
sg38
L-85L
sg46
L-85L
sg10
L-85L
sg27
L-85L
sg51
L-85L
sg52
L-85L
sg53
L-85L
sg54
L-85L
sg16
L-85L
sg47
L-85L
sg17
L-85L
sg45
L-85L
sg37
L-85L
sg25
L-85L
sg21
L-85L
sg41
L-85L
sg42
L-85L
sg48
L-85L
sg44
L-85L
sg49
L-85L
sg24
L-85L
sg20
L-85L
sg26
L-85L
sg50
L-85L
sg29
L-85L
sg55
L-85L
sg84
L-85L
ssL312L
(dp485
g74
L140L
sg388
L305L
sg51
L337L
ssL313L
(dp486
g2
L-146L
sg3
L-146L
sg4
L-146L
sg5
L-146L
sg6
L-146L
sg7
L-146L
sg8
L-146L
sg9
L-146L
sg10
L-146L
sg50
L-146L
sg11
L-146L
sg12
L-146L
sg13
L-146L
sg14
L-146L
sg53
L-146L
sg15
L-146L
sg54
L-146L
sg16
L-146L
sg17
L-146L
sg18
L-146L
sg74
L-146L
sg20
L-146L
sg21
L-146L
sg22
L-146L
sg23
L-146L
sg48
L-146L
sg24
L-146L
sg25
L-146L
sg26
L-146L
sg27
L-146L
sg28
L-146L
sg29
L-146L
sg30
L-146L
sg31
L-146L
ssL314L
(dp487
VWORD
p488
L340L
ssL315L
(dp489
g38
L314L
sg51
L341L
ssL316L
(dp490
g2
L-95L
sg4
L-95L
sg39
L-95L
sg5
L-95L
sg40
L-95L
sg43
L-95L
sg38
L-95L
sg46
L-95L
sg10
L-95L
sg27
L-95L
sg51
L-95L
sg52
L-95L
sg53
L-95L
sg54
L-95L
sg16
L-95L
sg47
L-95L
sg17
L-95L
sg45
L-95L
sg37
L-95L
sg25
L-95L
sg21
L-95L
sg41
L-95L
sg42
L-95L
sg48
L-95L
sg44
L-95L
sg49
L-95L
sg24
L-95L
sg20
L-95L
sg26
L-95L
sg50
L-95L
sg29
L-95L
sg55
L-95L
sg84
L-95L
ssL317L
(dp491
g74
L-124L
sg358
L-124L
sg406
L-124L
sg14
L-124L
ssL318L
(dp492
g74
L-126L
sg358
L-126L
sg406
L-126L
sg14
L-126L
ssL319L
(dp493
g74
L-128L
sg358
L-128L
sg406
L-128L
sg14
L-128L
ssL320L
(dp494
g2
L-146L
sg3
L-146L
sg4
L-146L
sg5
L-146L
sg6
L-146L
sg7
L-146L
sg8
L-146L
sg9
L-146L
sg10
L-146L
sg11
L-146L
sg12
L-146L
sg13
L-146L
sg14
L-146L
sg15
L-146L
sg16
L-146L
sg17
L-146L
sg18
L-146L
sg74
L-146L
sg20
L-146L
sg21
L-146L
sg22
L-146L
sg23
L-146L
sg24
L-146L
sg25
L-146L
sg26
L-146L
sg27
L-146L
sg28
L-146L
sg29
L-146L
sg30
L-146L
sg31
L-146L
ssL321L
(dp495
g2
L-146L
sg3
L-146L
sg4
L-146L
sg5
L-146L
sg6
L-146L
sg7
L-146L
sg8
L-146L
sg9
L-146L
sg10
L-146L
sg11
L-146L
sg12
L-146L
sg13
L-146L
sg14
L-146L
sg15
L-146L
sg16
L-146L
sg17
L-146L
sg18
L-146L
sg74
L-146L
sg20
L-146L
sg21
L-146L
sg22
L-146L
sg23
L-146L
sg24
L-146L
sg25
L-146L
sg26
L-146L
sg27
L-146L
sg28
L-146L
sg29
L-146L
sg30
L-146L
sg31
L-146L
ssL322L
(dp496
g2
L-146L
sg3
L-146L
sg4
L-146L
sg5
L-146L
sg6
L-146L
sg7
L-146L
sg8
L-146L
sg9
L-146L
sg10
L-146L
sg11
L-146L
sg12
L-146L
sg13
L-146L
sg14
L-146L
sg15
L-146L
sg16
L-146L
sg17
L-146L
sg18
L-146L
sg74
L-146L
sg20
L-146L
sg21
L-146L
sg22
L-146L
sg23
L-146L
sg24
L-146L
sg25
L-146L
sg26
L-146L
sg27
L-146L
sg28
L-146L
sg29
L-146L
sg30
L-146L
sg31
L-146L
ssL323L
(dp497
g2
L-146L
sg3
L-146L
sg4
L-146L
sg5
L-146L
sg6
L-146L
sg7
L-146L
sg8
L-146L
sg9
L-146L
sg10
L-146L
sg11
L-146L
sg12
L-146L
sg13
L-146L
sg14
L-146L
sg15
L-146L
sg16
L-146L
sg17
L-146L
sg18
L-146L
sg74
L-146L
sg20
L-146L
sg21
L-146L
sg22
L-146L
sg23
L-146L
sg24
L-146L
sg25
L-146L
sg26
L-146L
sg27
L-146L
sg28
L-146L
sg29
L-146L
sg30
L-146L
sg31
L-146L
ssL324L
(dp498
g2
L-109L
sg4
L-109L
sg39
L-109L
sg5
L-109L
sg40
L-109L
sg43
L-109L
sg38
L-109L
sg46
L-109L
sg10
L-109L
sg27
L-109L
sg51
L-109L
sg52
L-109L
sg53
L-109L
sg54
L-109L
sg16
L-109L
sg47
L-109L
sg17
L-109L
sg45
L-109L
sg68
L-109L
sg25
L-109L
sg21
L-109L
sg69
L-109L
sg42
L-109L
sg48
L-109L
sg44
L-109L
sg49
L-109L
sg24
L-109L
sg20
L-109L
sg26
L-109L
sg50
L-109L
sg29
L-109L
sg70
L-109L
sg84
L-109L
ssL325L
(dp499
g2
L-90L
sg4
L-90L
sg39
L-90L
sg5
L-90L
sg40
L-90L
sg43
L-90L
sg38
L-90L
sg46
L-90L
sg10
L-90L
sg27
L-90L
sg51
L-90L
sg52
L-90L
sg53
L-90L
sg54
L-90L
sg16
L-90L
sg47
L-90L
sg17
L-90L
sg45
L-90L
sg68
L-90L
sg25
L-90L
sg21
L-90L
sg69
L-90L
sg42
L-90L
sg48
L-90L
sg44
L-90L
sg49
L-90L
sg24
L-90L
sg20
L-90L
sg26
L-90L
sg50
L-90L
sg29
L-90L
sg70
L-90L
sg84
L-90L
ssL326L
(dp500
g2
L-91L
sg4
L-91L
sg39
L-91L
sg5
L-91L
sg40
L-91L
sg43
L-91L
sg38
L-91L
sg46
L-91L
sg10
L-91L
sg27
L-91L
sg51
L-91L
sg52
L-91L
sg53
L-91L
sg54
L-91L
sg16
L-91L
sg47
L-91L
sg17
L-91L
sg45
L-91L
sg68
L-91L
sg25
L-91L
sg21
L-91L
sg69
L-91L
sg42
L-91L
sg48
L-91L
sg44
L-91L
sg49
L-91L
sg24
L-91L
sg20
L-91L
sg26
L-91L
sg50
L-91L
sg29
L-91L
sg70
L-91L
sg84
L-91L
ssL327L
(dp501
g2
L-146L
sg3
L-146L
sg4
L-146L
sg39
L-146L
sg5
L-146L
sg6
L-146L
sg7
L-146L
sg8
L-146L
sg9
L-146L
sg10
L-146L
sg11
L-146L
sg12
L-146L
sg13
L-146L
sg14
L-146L
sg15
L-146L
sg16
L-146L
sg17
L-146L
sg18
L-146L
sg74
L-146L
sg20
L-146L
sg21
L-146L
sg22
L-146L
sg23
L-146L
sg287
L-146L
sg24
L-146L
sg25
L-146L
sg26
L-146L
sg27
L-146L
sg28
L-146L
sg29
L-146L
sg30
L-146L
sg31
L-146L
ssL328L
(dp502
g2
L-146L
sg3
L-146L
sg4
L-146L
sg39
L-146L
sg5
L-146L
sg6
L-146L
sg7
L-146L
sg8
L-146L
sg9
L-146L
sg10
L-146L
sg11
L-146L
sg12
L-146L
sg13
L-146L
sg14
L-146L
sg15
L-146L
sg16
L-146L
sg17
L-146L
sg18
L-146L
sg74
L-146L
sg20
L-146L
sg21
L-146L
sg22
L-146L
sg23
L-146L
sg287
L-146L
sg24
L-146L
sg25
L-146L
sg26
L-146L
sg27
L-146L
sg28
L-146L
sg29
L-146L
sg30
L-146L
sg31
L-146L
ssL329L
(dp503
g2
L-146L
sg3
L-146L
sg4
L-146L
sg39
L-146L
sg5
L-146L
sg6
L-146L
sg7
L-146L
sg8
L-146L
sg9
L-146L
sg10
L-146L
sg11
L-146L
sg12
L-146L
sg13
L-146L
sg14
L-146L
sg15
L-146L
sg16
L-146L
sg17
L-146L
sg18
L-146L
sg74
L-146L
sg20
L-146L
sg21
L-146L
sg22
L-146L
sg23
L-146L
sg287
L-146L
sg24
L-146L
sg25
L-146L
sg26
L-146L
sg27
L-146L
sg28
L-146L
sg29
L-146L
sg30
L-146L
sg31
L-146L
ssL330L
(dp504
g74
L140L
sg288
L349L
sg474
L350L
ssL331L
(dp505
VDONE
p506
L351L
ssL332L
(dp507
g39
L352L
ssL333L
(dp508
g2
L-146L
sg3
L-146L
sg4
L-146L
sg5
L-146L
sg6
L-146L
sg7
L-146L
sg8
L-146L
sg9
L-146L
sg10
L-146L
sg11
L-146L
sg12
L-146L
sg13
L-146L
sg14
L-146L
sg15
L-146L
sg16
L-146L
sg17
L-146L
sg18
L-146L
sg74
L-146L
sg20
L-146L
sg21
L-146L
sg22
L-146L
sg23
L-146L
sg24
L-146L
sg25
L-146L
sg26
L-146L
sg27
L-146L
sg28
L-146L
sg29
L-146L
sg30
L-146L
sg31
L-146L
ssL334L
(dp509
g2
L-146L
sg3
L-146L
sg4
L-146L
sg5
L-146L
sg6
L-146L
sg7
L-146L
sg8
L-146L
sg9
L-146L
sg10
L-146L
sg11
L-146L
sg12
L-146L
sg13
L-146L
sg14
L-146L
sg15
L-146L
sg16
L-146L
sg17
L-146L
sg18
L-146L
sg74
L-146L
sg20
L-146L
sg21
L-146L
sg22
L-146L
sg23
L-146L
sg24
L-146L
sg25
L-146L
sg26
L-146L
sg27
L-146L
sg28
L-146L
sg29
L-146L
sg30
L-146L
sg31
L-146L
ssL335L
(dp510
g2
L-146L
sg3
L-146L
sg4
L-146L
sg5
L-146L
sg6
L-146L
sg7
L-146L
sg8
L-146L
sg9
L-146L
sg10
L-146L
sg11
L-146L
sg12
L-146L
sg13
L-146L
sg14
L-146L
sg15
L-146L
sg16
L-146L
sg17
L-146L
sg18
L-146L
sg74
L-146L
sg20
L-146L
sg21
L-146L
sg22
L-146L
sg23
L-146L
sg24
L-146L
sg25
L-146L
sg26
L-146L
sg27
L-146L
sg28
L-146L
sg29
L-146L
sg30
L-146L
sg31
L-146L
ssL336L
(dp511
g2
L-146L
sg3
L-146L
sg4
L-146L
sg5
L-146L
sg6
L-146L
sg7
L-146L
sg8
L-146L
sg9
L-146L
sg10
L-146L
sg11
L-146L
sg12
L-146L
sg13
L-146L
sg14
L-146L
sg15
L-146L
sg16
L-146L
sg17
L-146L
sg18
L-146L
sg74
L-146L
sg20
L-146L
sg21
L-146L
sg22
L-146L
sg23
L-146L
sg24
L-146L
sg25
L-146L
sg26
L-146L
sg27
L-146L
sg28
L-146L
sg29
L-146L
sg30
L-146L
sg31
L-146L
ssL337L
(dp512
g2
L-173L
sg4
L-173L
sg39
L-173L
sg5
L-173L
sg40
L-173L
sg43
L-173L
sg65
L-173L
sg38
L-173L
sg46
L-173L
sg10
L-173L
sg27
L-173L
sg51
L-173L
sg52
L-173L
sg53
L-173L
sg54
L-173L
sg16
L-173L
sg47
L-173L
sg17
L-173L
sg45
L-173L
sg37
L-173L
sg25
L-173L
sg21
L-173L
sg41
L-173L
sg42
L-173L
sg48
L-173L
sg44
L-173L
sg49
L-173L
sg24
L-173L
sg20
L-173L
sg26
L-173L
sg50
L-173L
sg29
L-173L
sg55
L-173L
sg28
L-173L
ssL338L
(dp513
g53
L-119L
sg50
L-119L
sg54
L-119L
sg48
L-119L
ssL339L
(dp514
g2
L1L
sg3
L19L
sg4
L2L
sg5
L4L
sg6
L5L
sg7
L21L
sg27
L30L
sg8
L7L
sg9
L22L
sg10
L23L
sg50
L-120L
sg12
L35L
sg13
L24L
sg14
L10L
sg53
L-120L
sg15
L46L
sg54
L-120L
sg16
L12L
sg17
L37L
sg18
L13L
sg74
L140L
sg20
L52L
sg21
L47L
sg22
L39L
sg23
L48L
sg48
L-120L
sg24
L51L
sg25
L18L
sg26
L29L
sg11
L9L
sg30
L53L
sg29
L31L
sg28
L32L
sg31
L36L
ssL340L
(dp515
g38
L-130L
sg51
L-130L
ssL341L
(dp516
g2
L-146L
sg3
L-146L
sg4
L-146L
sg5
L-146L
sg6
L-146L
sg7
L-146L
sg8
L-146L
sg9
L-146L
sg10
L-146L
sg50
L-146L
sg11
L-146L
sg12
L-146L
sg13
L-146L
sg14
L-146L
sg53
L-146L
sg15
L-146L
sg54
L-146L
sg16
L-146L
sg17
L-146L
sg18
L-146L
sg74
L-146L
sg20
L-146L
sg21
L-146L
sg22
L-146L
sg23
L-146L
sg48
L-146L
sg24
L-146L
sg25
L-146L
sg26
L-146L
sg27
L-146L
sg28
L-146L
sg29
L-146L
sg30
L-146L
sg31
L-146L
ssL342L
(dp517
g2
L1L
sg3
L19L
sg4
L2L
sg5
L4L
sg6
L5L
sg7
L21L
sg8
L7L
sg9
L22L
sg10
L23L
sg11
L9L
sg12
L35L
sg13
L24L
sg14
L10L
sg15
L46L
sg16
L12L
sg17
L37L
sg18
L13L
sg74
L140L
sg20
L52L
sg21
L47L
sg22
L39L
sg23
L48L
sg24
L51L
sg25
L18L
sg26
L29L
sg27
L30L
sg28
L32L
sg29
L31L
sg30
L53L
sg31
L36L
ssL343L
(dp518
g2
L1L
sg3
L19L
sg4
L2L
sg5
L4L
sg6
L5L
sg7
L21L
sg8
L7L
sg9
L22L
sg10
L23L
sg11
L9L
sg12
L35L
sg13
L24L
sg14
L10L
sg15
L46L
sg16
L12L
sg17
L37L
sg18
L13L
sg74
L140L
sg20
L52L
sg21
L47L
sg22
L39L
sg23
L48L
sg24
L51L
sg25
L18L
sg26
L29L
sg27
L30L
sg28
L32L
sg29
L31L
sg30
L53L
sg31
L36L
ssL344L
(dp519
g2
L1L
sg3
L19L
sg4
L2L
sg5
L4L
sg6
L5L
sg7
L21L
sg8
L7L
sg9
L22L
sg10
L23L
sg11
L9L
sg12
L35L
sg13
L24L
sg14
L10L
sg15
L46L
sg16
L12L
sg17
L37L
sg18
L13L
sg74
L140L
sg20
L52L
sg21
L47L
sg22
L39L
sg23
L48L
sg24
L51L
sg25
L18L
sg26
L29L
sg27
L30L
sg28
L32L
sg29
L31L
sg30
L53L
sg31
L36L
ssL345L
(dp520
g42
L255L
sg170
L-114L
sg168
L360L
ssL346L
(dp521
g2
L1L
sg3
L19L
sg4
L2L
sg39
L-134L
sg5
L4L
sg6
L5L
sg287
L-134L
sg8
L7L
sg9
L22L
sg10
L23L
sg11
L9L
sg12
L35L
sg13
L24L
sg14
L10L
sg15
L46L
sg16
L12L
sg17
L37L
sg18
L13L
sg74
L140L
sg20
L52L
sg21
L47L
sg22
L39L
sg23
L48L
sg7
L21L
sg24
L51L
sg25
L18L
sg26
L29L
sg27
L30L
sg28
L32L
sg29
L31L
sg30
L53L
sg31
L36L
ssL347L
(dp522
g2
L1L
sg3
L19L
sg4
L2L
sg39
L-135L
sg5
L4L
sg6
L5L
sg287
L-135L
sg8
L7L
sg9
L22L
sg10
L23L
sg11
L9L
sg12
L35L
sg13
L24L
sg14
L10L
sg15
L46L
sg16
L12L
sg17
L37L
sg18
L13L
sg74
L140L
sg20
L52L
sg21
L47L
sg22
L39L
sg23
L48L
sg7
L21L
sg24
L51L
sg25
L18L
sg26
L29L
sg27
L30L
sg28
L32L
sg29
L31L
sg30
L53L
sg31
L36L
ssL348L
(dp523
g2
L1L
sg3
L19L
sg4
L2L
sg39
L-136L
sg5
L4L
sg6
L5L
sg287
L-136L
sg8
L7L
sg9
L22L
sg10
L23L
sg11
L9L
sg12
L35L
sg13
L24L
sg14
L10L
sg15
L46L
sg16
L12L
sg17
L37L
sg18
L13L
sg74
L140L
sg20
L52L
sg21
L47L
sg22
L39L
sg23
L48L
sg7
L21L
sg24
L51L
sg25
L18L
sg26
L29L
sg27
L30L
sg28
L32L
sg29
L31L
sg30
L53L
sg31
L36L
ssL349L
(dp524
g2
L-146L
sg3
L-146L
sg4
L-146L
sg5
L-146L
sg6
L-146L
sg7
L-146L
sg8
L-146L
sg9
L-146L
sg10
L-146L
sg11
L-146L
sg12
L-146L
sg13
L-146L
sg14
L-146L
sg15
L-146L
sg16
L-146L
sg17
L-146L
sg18
L-146L
sg74
L-146L
sg20
L-146L
sg21
L-146L
sg22
L-146L
sg23
L-146L
sg24
L-146L
sg25
L-146L
sg26
L-146L
sg27
L-146L
sg28
L-146L
sg29
L-146L
sg30
L-146L
sg31
L-146L
ssL350L
(dp525
g2
L-146L
sg3
L-146L
sg4
L-146L
sg5
L-146L
sg6
L-146L
sg7
L-146L
sg8
L-146L
sg9
L-146L
sg10
L-146L
sg11
L-146L
sg12
L-146L
sg13
L-146L
sg14
L-146L
sg15
L-146L
sg16
L-146L
sg17
L-146L
sg18
L-146L
sg74
L-146L
sg20
L-146L
sg21
L-146L
sg22
L-146L
sg23
L-146L
sg24
L-146L
sg25
L-146L
sg26
L-146L
sg27
L-146L
sg28
L-146L
sg29
L-146L
sg30
L-146L
sg31
L-146L
ssL351L
(dp526
g2
L-82L
sg4
L-82L
sg39
L-82L
sg5
L-82L
sg40
L-82L
sg43
L-82L
sg38
L-82L
sg46
L-82L
sg10
L-82L
sg27
L-82L
sg51
L-82L
sg52
L-82L
sg53
L-82L
sg54
L-82L
sg16
L-82L
sg47
L-82L
sg17
L-82L
sg45
L-82L
sg37
L-82L
sg25
L-82L
sg21
L-82L
sg41
L-82L
sg42
L-82L
sg48
L-82L
sg44
L-82L
sg49
L-82L
sg24
L-82L
sg20
L-82L
sg26
L-82L
sg50
L-82L
sg29
L-82L
sg55
L-82L
sg84
L-82L
ssL352L
(dp527
g2
L-83L
sg4
L-83L
sg39
L-83L
sg5
L-83L
sg40
L-83L
sg43
L-83L
sg38
L-83L
sg46
L-83L
sg10
L-83L
sg27
L-83L
sg51
L-83L
sg52
L-83L
sg53
L-83L
sg54
L-83L
sg16
L-83L
sg47
L-83L
sg17
L-83L
sg45
L-83L
sg37
L-83L
sg25
L-83L
sg21
L-83L
sg41
L-83L
sg42
L-83L
sg48
L-83L
sg44
L-83L
sg49
L-83L
sg24
L-83L
sg20
L-83L
sg26
L-83L
sg50
L-83L
sg29
L-83L
sg55
L-83L
sg84
L-83L
ssL353L
(dp528
VDONE
p529
L364L
ssL354L
(dp530
g39
L365L
ssL355L
(dp531
VDONE
p532
L366L
ssL356L
(dp533
g39
L367L
ssL357L
(dp534
g2
L-169L
sg4
L-169L
sg39
L-169L
sg5
L-169L
sg40
L-169L
sg43
L-169L
sg65
L-169L
sg38
L-169L
sg46
L-169L
sg10
L-169L
sg27
L-169L
sg51
L-169L
sg52
L-169L
sg53
L-169L
sg54
L-169L
sg16
L-169L
sg47
L-169L
sg17
L-169L
sg45
L-169L
sg37
L-169L
sg25
L-169L
sg21
L-169L
sg41
L-169L
sg42
L-169L
sg48
L-169L
sg44
L-169L
sg49
L-169L
sg24
L-169L
sg20
L-169L
sg26
L-169L
sg50
L-169L
sg29
L-169L
sg55
L-169L
sg28
L-169L
ssL358L
(dp535
g53
L-121L
sg50
L-121L
sg54
L-121L
sg48
L-121L
ssL359L
(dp536
g2
L1L
sg3
L19L
sg4
L2L
sg5
L4L
sg6
L5L
sg7
L21L
sg27
L30L
sg8
L7L
sg9
L22L
sg10
L23L
sg50
L-122L
sg12
L35L
sg13
L24L
sg14
L10L
sg53
L-122L
sg15
L46L
sg54
L-122L
sg16
L12L
sg17
L37L
sg18
L13L
sg74
L140L
sg20
L52L
sg21
L47L
sg22
L39L
sg23
L48L
sg48
L-122L
sg24
L51L
sg25
L18L
sg26
L29L
sg11
L9L
sg30
L53L
sg29
L31L
sg28
L32L
sg31
L36L
ssL360L
(dp537
g2
L-146L
sg3
L-146L
sg4
L-146L
sg5
L-146L
sg6
L-146L
sg7
L-146L
sg8
L-146L
sg9
L-146L
sg10
L-146L
sg11
L-146L
sg12
L-146L
sg13
L-146L
sg14
L-146L
sg15
L-146L
sg16
L-146L
sg17
L-146L
sg18
L-146L
sg74
L-146L
sg20
L-146L
sg21
L-146L
sg22
L-146L
sg23
L-146L
sg24
L-146L
sg25
L-146L
sg26
L-146L
sg27
L-146L
sg28
L-146L
sg29
L-146L
sg30
L-146L
sg31
L-146L
ssL361L
(dp538
g170
L-116L
ssL362L
(dp539
VDONE
p540
L369L
ssL363L
(dp541
g39
L370L
ssL364L
(dp542
g2
L-78L
sg4
L-78L
sg39
L-78L
sg5
L-78L
sg40
L-78L
sg43
L-78L
sg38
L-78L
sg46
L-78L
sg10
L-78L
sg27
L-78L
sg51
L-78L
sg52
L-78L
sg53
L-78L
sg54
L-78L
sg16
L-78L
sg47
L-78L
sg17
L-78L
sg45
L-78L
sg37
L-78L
sg25
L-78L
sg21
L-78L
sg41
L-78L
sg42
L-78L
sg48
L-78L
sg44
L-78L
sg49
L-78L
sg24
L-78L
sg20
L-78L
sg26
L-78L
sg50
L-78L
sg29
L-78L
sg55
L-78L
sg84
L-78L
ssL365L
(dp543
g2
L-79L
sg4
L-79L
sg39
L-79L
sg5
L-79L
sg40
L-79L
sg43
L-79L
sg38
L-79L
sg46
L-79L
sg10
L-79L
sg27
L-79L
sg51
L-79L
sg52
L-79L
sg53
L-79L
sg54
L-79L
sg16
L-79L
sg47
L-79L
sg17
L-79L
sg45
L-79L
sg37
L-79L
sg25
L-79L
sg21
L-79L
sg41
L-79L
sg42
L-79L
sg48
L-79L
sg44
L-79L
sg49
L-79L
sg24
L-79L
sg20
L-79L
sg26
L-79L
sg50
L-79L
sg29
L-79L
sg55
L-79L
sg84
L-79L
ssL366L
(dp544
g2
L-80L
sg4
L-80L
sg39
L-80L
sg5
L-80L
sg40
L-80L
sg43
L-80L
sg38
L-80L
sg46
L-80L
sg10
L-80L
sg27
L-80L
sg51
L-80L
sg52
L-80L
sg53
L-80L
sg54
L-80L
sg16
L-80L
sg47
L-80L
sg17
L-80L
sg45
L-80L
sg37
L-80L
sg25
L-80L
sg21
L-80L
sg41
L-80L
sg42
L-80L
sg48
L-80L
sg44
L-80L
sg49
L-80L
sg24
L-80L
sg20
L-80L
sg26
L-80L
sg50
L-80L
sg29
L-80L
sg55
L-80L
sg84
L-80L
ssL367L
(dp545
g2
L-81L
sg4
L-81L
sg39
L-81L
sg5
L-81L
sg40
L-81L
sg43
L-81L
sg38
L-81L
sg46
L-81L
sg10
L-81L
sg27
L-81L
sg51
L-81L
sg52
L-81L
sg53
L-81L
sg54
L-81L
sg16
L-81L
sg47
L-81L
sg17
L-81L
sg45
L-81L
sg37
L-81L
sg25
L-81L
sg21
L-81L
sg41
L-81L
sg42
L-81L
sg48
L-81L
sg44
L-81L
sg49
L-81L
sg24
L-81L
sg20
L-81L
sg26
L-81L
sg50
L-81L
sg29
L-81L
sg55
L-81L
sg84
L-81L
ssL368L
(dp546
g170
L-115L
ssL369L
(dp547
g2
L-92L
sg4
L-92L
sg39
L-92L
sg5
L-92L
sg40
L-92L
sg43
L-92L
sg38
L-92L
sg46
L-92L
sg10
L-92L
sg27
L-92L
sg51
L-92L
sg52
L-92L
sg53
L-92L
sg54
L-92L
sg16
L-92L
sg47
L-92L
sg17
L-92L
sg45
L-92L
sg68
L-92L
sg25
L-92L
sg21
L-92L
sg69
L-92L
sg42
L-92L
sg48
L-92L
sg44
L-92L
sg49
L-92L
sg24
L-92L
sg20
L-92L
sg26
L-92L
sg50
L-92L
sg29
L-92L
sg70
L-92L
sg84
L-92L
ssL370L
(dp548
g2
L-93L
sg4
L-93L
sg39
L-93L
sg5
L-93L
sg40
L-93L
sg43
L-93L
sg38
L-93L
sg46
L-93L
sg10
L-93L
sg27
L-93L
sg51
L-93L
sg52
L-93L
sg53
L-93L
sg54
L-93L
sg16
L-93L
sg47
L-93L
sg17
L-93L
sg45
L-93L
sg68
L-93L
sg25
L-93L
sg21
L-93L
sg69
L-93L
sg42
L-93L
sg48
L-93L
sg44
L-93L
sg49
L-93L
sg24
L-93L
sg20
L-93L
sg26
L-93L
sg50
L-93L
sg29
L-93L
sg70
L-93L
sg84
L-93L
ss.(dp0
L0L
(dp1
Vpipeline
p2
L33L
sVcommand
p3
L3L
sVsimple_list
p4
L43L
sVarith_for_command
p5
L20L
sVcond_command
p6
L34L
sVshell_command
p7
L15L
sVcase_command
p8
L49L
sVfunction_def
p9
L8L
sVsimple_command_element
p10
L44L
sVinputunit
p11
L54L
sVsimple_command
p12
L45L
sVtimespec
p13
L11L
sVfor_command
p14
L25L
sVsimple_list1
p15
L38L
sVarith_command
p16
L27L
sVselect_command
p17
L28L
sVcoproc
p18
L16L
sVredirection
p19
L50L
sVpipeline_command
p20
L6L
sVassignment_word
p21
L17L
sVinputunit_list
p22
L14L
sVgroup_command
p23
L41L
sVif_command
p24
L42L
sVsubshell
p25
L40L
ssL1L
(dp26
sL2L
(dp27
sL3L
(dp28
sL4L
(dp29
sL5L
(dp30
sL6L
(dp31
sL7L
(dp32
sL8L
(dp33
sL9L
(dp34
sL10L
(dp35
Vcompound_list
p36
L66L
sVnewline_list
p37
L65L
sVlist
p38
L67L
ssL11L
(dp39
Vlist_terminator
p40
L70L
sg2
L33L
sg16
L27L
sg3
L3L
sg5
L20L
sg6
L34L
sg18
L16L
sVpipeline_command
p41
L69L
sg7
L15L
sg8
L49L
sg9
L8L
sg10
L44L
sg19
L50L
sg21
L17L
sg25
L40L
sg12
L45L
sg13
L11L
sg24
L42L
sg14
L25L
sg17
L28L
sg23
L41L
ssL12L
(dp42
sL13L
(dp43
sL14L
(dp44
g2
L33L
sg3
L3L
sg4
L43L
sg5
L20L
sg6
L34L
sg7
L15L
sg8
L49L
sg9
L8L
sg10
L44L
sVinputunit
p45
L74L
sg12
L45L
sg13
L11L
sg14
L25L
sg15
L38L
sg16
L27L
sg17
L28L
sg18
L16L
sg19
L50L
sg20
L6L
sg21
L17L
sg25
L40L
sg23
L41L
sg24
L42L
ssL15L
(dp46
Vredirection_list
p47
L76L
sVredirection
p48
L75L
ssL16L
(dp49
sL17L
(dp50
sL18L
(dp51
sL19L
(dp52
Vlist_terminator
p53
L80L
sg2
L33L
sg16
L27L
sg3
L3L
sg5
L20L
sg6
L34L
sg18
L16L
sVpipeline_command
p54
L79L
sg7
L15L
sg8
L49L
sg9
L8L
sg10
L44L
sg19
L50L
sg21
L17L
sg25
L40L
sg12
L45L
sg13
L11L
sg24
L42L
sg14
L25L
sg17
L28L
sg23
L41L
ssL20L
(dp55
sL21L
(dp56
g8
L49L
sg16
L27L
sg5
L20L
sg6
L34L
sg17
L28L
sVshell_command
p57
L83L
sg19
L50L
sg14
L25L
sg10
L44L
sg21
L17L
sg25
L40L
sg23
L41L
sg24
L42L
sVsimple_command
p58
L82L
ssL22L
(dp59
g37
L65L
sVcompound_list
p60
L84L
sg38
L67L
ssL23L
(dp61
sL24L
(dp62
sL25L
(dp63
sL26L
(dp64
sL27L
(dp65
sL28L
(dp66
sL29L
(dp67
sL30L
(dp68
sL31L
(dp69
sL32L
(dp70
sL33L
(dp71
sL34L
(dp72
sL35L
(dp73
Vcompound_list
p74
L104L
sg37
L65L
sg38
L67L
ssL36L
(dp75
Vcompound_list
p76
L105L
sg37
L65L
sg38
L67L
ssL37L
(dp77
sL38L
(dp78
sL39L
(dp79
sL40L
(dp80
sL41L
(dp81
sL42L
(dp82
sL43L
(dp83
Vsimple_list_terminator
p84
L113L
ssL44L
(dp85
sL45L
(dp86
Vcurly_off
p87
L114L
sVcurly_on
p88
L115L
ssL46L
(dp89
sL47L
(dp90
sL48L
(dp91
sL49L
(dp92
sL50L
(dp93
sL51L
(dp94
sL52L
(dp95
sL53L
(dp96
Vcompound_list
p97
L129L
sg37
L65L
sg38
L67L
ssL54L
(dp98
sL55L
(dp99
sL56L
(dp100
sL57L
(dp101
sL58L
(dp102
sL59L
(dp103
sL60L
(dp104
Vnewline_list
p105
L130L
ssL61L
(dp106
Vlist_terminator
p107
L132L
ssL62L
(dp108
Vassignment_off
p109
L135L
ssL63L
(dp110
sL64L
(dp111
Vnewline_list
p112
L138L
ssL65L
(dp113
g2
L33L
sg3
L3L
sg5
L20L
sg6
L34L
sg9
L8L
sg7
L15L
sg8
L49L
sVlist1
p114
L142L
sg10
L44L
sVlist0
p115
L141L
sg13
L11L
sg14
L25L
sg16
L27L
sg17
L28L
sg18
L16L
sg19
L50L
sVpipeline_command
p116
L139L
sg21
L17L
sg25
L40L
sg23
L41L
sg24
L42L
sg12
L45L
ssL66L
(dp117
sL67L
(dp118
sL68L
(dp119
sL69L
(dp120
sL70L
(dp121
sL71L
(dp122
sL72L
(dp123
sL73L
(dp124
Vnewline_list
p125
L145L
ssL74L
(dp126
sL75L
(dp127
sL76L
(dp128
Vredirection
p129
L146L
ssL77L
(dp130
sL78L
(dp131
sL79L
(dp132
sL80L
(dp133
sL81L
(dp134
g8
L49L
sg16
L27L
sg25
L40L
sg23
L41L
sg5
L20L
sg6
L34L
sg24
L42L
sg17
L28L
sVshell_command
p135
L147L
sg14
L25L
ssL82L
(dp136
g87
L114L
ssL83L
(dp137
Vredirection_list
p138
L148L
sg48
L75L
ssL84L
(dp139
sL85L
(dp140
sL86L
(dp141
Vnewline_list
p142
L151L
ssL87L
(dp143
sL88L
(dp144
sL89L
(dp145
sL90L
(dp146
sL91L
(dp147
sL92L
(dp148
sL93L
(dp149
sL94L
(dp150
sL95L
(dp151
sL96L
(dp152
sL97L
(dp153
sL98L
(dp154
sL99L
(dp155
sL100L
(dp156
sL101L
(dp157
sL102L
(dp158
Vnewline_list
p159
L166L
ssL103L
(dp160
Vnewline_list
p161
L167L
ssL104L
(dp162
sL105L
(dp163
sL106L
(dp164
sL107L
(dp165
g2
L33L
sg16
L27L
sg3
L3L
sg5
L20L
sg6
L34L
sg18
L16L
sg19
L50L
sg20
L6L
sg7
L15L
sg8
L49L
sg14
L25L
sg10
L44L
sVsimple_list1
p166
L170L
sg21
L17L
sg25
L40L
sg12
L45L
sg13
L11L
sg24
L42L
sg9
L8L
sg17
L28L
sg23
L41L
ssL108L
(dp167
Vnewline_list
p168
L171L
ssL109L
(dp169
g2
L33L
sg16
L27L
sg3
L3L
sg5
L20L
sg6
L34L
sg18
L16L
sg19
L50L
sg20
L6L
sg7
L15L
sg8
L49L
sg14
L25L
sg10
L44L
sVsimple_list1
p170
L172L
sg21
L17L
sg25
L40L
sg12
L45L
sg13
L11L
sg24
L42L
sg9
L8L
sg17
L28L
sg23
L41L
ssL110L
(dp171
Vnewline_list
p172
L173L
ssL111L
(dp173
sL112L
(dp174
sL113L
(dp175
sL114L
(dp176
Vsimple_command_element
p177
L176L
sg21
L17L
sg19
L50L
ssL115L
(dp178
sL116L
(dp179
sL117L
(dp180
sL118L
(dp181
sL119L
(dp182
sL120L
(dp183
sL121L
(dp184
sL122L
(dp185
sL123L
(dp186
sL124L
(dp187
sL125L
(dp188
sL126L
(dp189
sL127L
(dp190
sL128L
(dp191
sL129L
(dp192
sL130L
(dp193
sL131L
(dp194
Vnewline_list
p195
L196L
ssL132L
(dp196
Vnewline_list
p197
L197L
ssL133L
(dp198
Vcompound_list
p199
L198L
sg37
L65L
sg38
L67L
ssL134L
(dp200
Vcompound_list
p201
L199L
sg37
L65L
sg38
L67L
ssL135L
(dp202
sL136L
(dp203
sL137L
(dp204
Vnewline_list
p205
L202L
ssL138L
(dp206
sL139L
(dp207
sL140L
(dp208
sL141L
(dp209
sL142L
(dp210
sL143L
(dp211
sL144L
(dp212
sL145L
(dp213
g6
L34L
sg8
L49L
sVshell_command
p214
L210L
sg25
L40L
sg23
L41L
sg5
L20L
sg17
L28L
sVfunction_body
p215
L211L
sg24
L42L
sg16
L27L
sg14
L25L
ssL146L
(dp216
sL147L
(dp217
Vredirection_list
p218
L212L
sg48
L75L
ssL148L
(dp219
g129
L146L
ssL149L
(dp220
g37
L65L
sg60
L213L
sg38
L67L
ssL150L
(dp221
Vnewline_list
p222
L214L
ssL151L
(dp223
sL152L
(dp224
sL153L
(dp225
sL154L
(dp226
sL155L
(dp227
sL156L
(dp228
sL157L
(dp229
sL158L
(dp230
sL159L
(dp231
sL160L
(dp232
sL161L
(dp233
sL162L
(dp234
sL163L
(dp235
sL164L
(dp236
sL165L
(dp237
sL166L
(dp238
Vpipeline
p239
L218L
sg16
L27L
sg3
L3L
sg5
L20L
sg6
L34L
sg18
L16L
sg17
L28L
sg7
L15L
sg8
L49L
sg14
L25L
sg10
L44L
sg21
L17L
sg25
L40L
sg12
L45L
sg19
L50L
sg24
L42L
sg9
L8L
sg23
L41L
ssL167L
(dp240
Vpipeline
p241
L219L
sg16
L27L
sg3
L3L
sg5
L20L
sg6
L34L
sg18
L16L
sg17
L28L
sg7
L15L
sg8
L49L
sg14
L25L
sg10
L44L
sg21
L17L
sg25
L40L
sg12
L45L
sg19
L50L
sg24
L42L
sg9
L8L
sg23
L41L
ssL168L
(dp242
sL169L
(dp243
g76
L220L
sg37
L65L
sg38
L67L
ssL170L
(dp244
sL171L
(dp245
g2
L33L
sg16
L27L
sg3
L3L
sg5
L20L
sg6
L34L
sg18
L16L
sg19
L50L
sg20
L6L
sg7
L15L
sg8
L49L
sg14
L25L
sg10
L44L
sVsimple_list1
p246
L223L
sg21
L17L
sg25
L40L
sg12
L45L
sg13
L11L
sg24
L42L
sg9
L8L
sg17
L28L
sg23
L41L
ssL172L
(dp247
sL173L
(dp248
g2
L33L
sg16
L27L
sg3
L3L
sg5
L20L
sg6
L34L
sg18
L16L
sg19
L50L
sg20
L6L
sg7
L15L
sg8
L49L
sg14
L25L
sg10
L44L
sVsimple_list1
p249
L224L
sg21
L17L
sg25
L40L
sg12
L45L
sg13
L11L
sg24
L42L
sg9
L8L
sg17
L28L
sg23
L41L
ssL174L
(dp250
sL175L
(dp251
sL176L
(dp252
sL177L
(dp253
sL178L
(dp254
sL179L
(dp255
sL180L
(dp256
sL181L
(dp257
sL182L
(dp258
sL183L
(dp259
sL184L
(dp260
sL185L
(dp261
sL186L
(dp262
sL187L
(dp263
sL188L
(dp264
sL189L
(dp265
sL190L
(dp266
sL191L
(dp267
sL192L
(dp268
g97
L225L
sg37
L65L
sg38
L67L
ssL193L
(dp269
g105
L65L
sVcompound_list
p270
L226L
sg38
L67L
ssL194L
(dp271
Vnewline_list
p272
L65L
sVcompound_list
p273
L227L
sg38
L67L
ssL195L
(dp274
Vlist_terminator
p275
L228L
sVword_list
p276
L230L
sVnumber_list
p277
L231L
ssL196L
(dp278
sL197L
(dp279
sL198L
(dp280
sL199L
(dp281
sL200L
(dp282
Vnewline_list
p283
L239L
ssL201L
(dp284
Vassignment_on
p285
L240L
ssL202L
(dp286
g6
L34L
sg8
L49L
sg214
L210L
sg25
L40L
sg23
L41L
sg5
L20L
sg17
L28L
sVfunction_body
p287
L241L
sg24
L42L
sg16
L27L
sg14
L25L
ssL203L
(dp288
g112
L242L
sVpattern_list
p289
L243L
sVcase_clause
p290
L244L
sVcase_clause_sequence
p291
L245L
ssL204L
(dp292
Vnewline_list
p293
L246L
ssL205L
(dp294
Vnewline_list
p295
L247L
ssL206L
(dp296
Vnewline_list
p297
L248L
ssL207L
(dp298
Vnewline_list
p299
L249L
ssL208L
(dp300
Vnewline_list
p301
L250L
ssL209L
(dp302
g125
L251L
ssL210L
(dp303
Vredirection_list
p304
L252L
sg48
L75L
ssL211L
(dp305
sL212L
(dp306
g129
L146L
ssL213L
(dp307
Velif_clause
p308
L254L
ssL214L
(dp309
sL215L
(dp310
g142
L260L
sVlist
p311
L259L
ssL216L
(dp312
Vnewline_list
p313
L260L
sVlist
p314
L261L
ssL217L
(dp315
Vword_list
p316
L262L
ssL218L
(dp317
sL219L
(dp318
sL220L
(dp319
sL221L
(dp320
g2
L33L
sg16
L27L
sg3
L3L
sg5
L20L
sg6
L34L
sg18
L16L
sg19
L50L
sg20
L6L
sg7
L15L
sg8
L49L
sg14
L25L
sg10
L44L
sVsimple_list1
p321
L170L
sg21
L17L
sg25
L40L
sg12
L45L
sg13
L11L
sg24
L42L
sg9
L8L
sg17
L28L
sg23
L41L
ssL222L
(dp322
g2
L33L
sg16
L27L
sg3
L3L
sg5
L20L
sg6
L34L
sg18
L16L
sg19
L50L
sg20
L6L
sg7
L15L
sg8
L49L
sg14
L25L
sg10
L44L
sVsimple_list1
p323
L172L
sg21
L17L
sg25
L40L
sg12
L45L
sg13
L11L
sg24
L42L
sg9
L8L
sg17
L28L
sg23
L41L
ssL223L
(dp324
sL224L
(dp325
sL225L
(dp326
sL226L
(dp327
sL227L
(dp328
sL228L
(dp329
Vnewline_list
p330
L267L
ssL229L
(dp331
sL230L
(dp332
Vnewline_list
p333
L269L
sg275
L268L
ssL231L
(dp334
Vnewline_list
p335
L271L
sVlist_terminator
p336
L270L
ssL232L
(dp337
sL233L
(dp338
g195
L65L
sVcompound_list
p339
L272L
sg38
L67L
ssL234L
(dp340
Vnewline_list
p341
L65L
sVcompound_list
p342
L273L
sg38
L67L
ssL235L
(dp343
Vcompound_list
p344
L274L
sg197
L65L
sg38
L67L
ssL236L
(dp345
Vcompound_list
p346
L275L
sVnewline_list
p347
L65L
sg38
L67L
ssL237L
(dp348
sL238L
(dp349
sL239L
(dp350
Vword_list
p351
L276L
ssL240L
(dp352
sL241L
(dp353
sL242L
(dp354
Vpattern
p355
L277L
ssL243L
(dp356
sL244L
(dp357
sL245L
(dp358
Vnewline_list
p359
L285L
sVpattern_list
p360
L286L
ssL246L
(dp361
g2
L33L
sg16
L27L
sg3
L3L
sg5
L20L
sg6
L34L
sg18
L16L
sg116
L139L
sg7
L15L
sg8
L49L
sVlist1
p362
L287L
sg10
L44L
sg19
L50L
sg21
L17L
sg25
L40L
sg12
L45L
sg14
L25L
sg13
L11L
sg24
L42L
sg9
L8L
sg17
L28L
sg23
L41L
ssL247L
(dp363
g2
L33L
sg16
L27L
sg3
L3L
sg5
L20L
sg6
L34L
sg18
L16L
sg116
L139L
sg7
L15L
sg8
L49L
sVlist1
p364
L288L
sg10
L44L
sg19
L50L
sg21
L17L
sg25
L40L
sg12
L45L
sg14
L25L
sg13
L11L
sg24
L42L
sg9
L8L
sg17
L28L
sg23
L41L
ssL248L
(dp365
g2
L33L
sg16
L27L
sg3
L3L
sg5
L20L
sg6
L34L
sg18
L16L
sg116
L139L
sg7
L15L
sg8
L49L
sVlist1
p366
L289L
sg10
L44L
sg19
L50L
sg21
L17L
sg25
L40L
sg12
L45L
sg14
L25L
sg13
L11L
sg24
L42L
sg9
L8L
sg17
L28L
sg23
L41L
ssL249L
(dp367
g2
L33L
sg16
L27L
sg3
L3L
sg5
L20L
sg6
L34L
sg18
L16L
sg116
L139L
sg7
L15L
sg8
L49L
sVlist1
p368
L290L
sg10
L44L
sg19
L50L
sg21
L17L
sg25
L40L
sg12
L45L
sg14
L25L
sg13
L11L
sg24
L42L
sg9
L8L
sg17
L28L
sg23
L41L
ssL250L
(dp369
g2
L33L
sg16
L27L
sg3
L3L
sg5
L20L
sg6
L34L
sg18
L16L
sg116
L139L
sg7
L15L
sg8
L49L
sVlist1
p370
L291L
sg10
L44L
sg19
L50L
sg21
L17L
sg25
L40L
sg12
L45L
sg14
L25L
sg13
L11L
sg24
L42L
sg9
L8L
sg17
L28L
sg23
L41L
ssL251L
(dp371
g6
L34L
sg8
L49L
sg214
L210L
sg25
L40L
sg23
L41L
sg5
L20L
sg17
L28L
sVfunction_body
p372
L292L
sg24
L42L
sg16
L27L
sg14
L25L
ssL252L
(dp373
g129
L146L
ssL253L
(dp374
sL254L
(dp375
sL255L
(dp376
g37
L65L
sVcompound_list
p377
L294L
sg38
L67L
ssL256L
(dp378
Vcompound_list
p379
L295L
sg37
L65L
sg38
L67L
ssL257L
(dp380
g222
L260L
sVlist
p381
L296L
ssL258L
(dp382
Vnewline_list
p383
L260L
sVlist
p384
L297L
ssL259L
(dp385
sL260L
(dp386
g2
L33L
sg3
L3L
sg5
L20L
sg6
L34L
sg9
L8L
sg7
L15L
sg8
L49L
sVlist1
p387
L299L
sg10
L44L
sg115
L141L
sg13
L11L
sg14
L25L
sg16
L27L
sg17
L28L
sg18
L16L
sg19
L50L
sg116
L139L
sg21
L17L
sg25
L40L
sg23
L41L
sg24
L42L
sg12
L45L
ssL261L
(dp388
sL262L
(dp389
Vnewline_list
p390
L269L
sVlist_terminator
p391
L301L
ssL263L
(dp392
sL264L
(dp393
sL265L
(dp394
sL266L
(dp395
sL267L
(dp396
sL268L
(dp397
g333
L304L
ssL269L
(dp398
sL270L
(dp399
g335
L306L
ssL271L
(dp400
sL272L
(dp401
sL273L
(dp402
sL274L
(dp403
sL275L
(dp404
sL276L
(dp405
g283
L312L
ssL277L
(dp406
sL278L
(dp407
sL279L
(dp408
Vpattern
p409
L315L
ssL280L
(dp410
sL281L
(dp411
sL282L
(dp412
sL283L
(dp413
sL284L
(dp414
sL285L
(dp415
g355
L277L
ssL286L
(dp416
sL287L
(dp417
sL288L
(dp418
sL289L
(dp419
sL290L
(dp420
sL291L
(dp421
sL292L
(dp422
sL293L
(dp423
sL294L
(dp424
sL295L
(dp425
sL296L
(dp426
sL297L
(dp427
sL298L
(dp428
sL299L
(dp429
sL300L
(dp430
sL301L
(dp431
g390
L330L
ssL302L
(dp432
Vcompound_list
p433
L331L
sg330
L65L
sg38
L67L
ssL303L
(dp434
Vcompound_list
p435
L332L
sVnewline_list
p436
L65L
sg38
L67L
ssL304L
(dp437
sL305L
(dp438
sL306L
(dp439
sL307L
(dp440
sL308L
(dp441
sL309L
(dp442
sL310L
(dp443
sL311L
(dp444
sL312L
(dp445
sL313L
(dp446
Vcompound_list
p447
L338L
sVnewline_list
p448
L339L
sg38
L67L
ssL314L
(dp449
sL315L
(dp450
sL316L
(dp451
sL317L
(dp452
sL318L
(dp453
sL319L
(dp454
sL320L
(dp455
g293
L342L
ssL321L
(dp456
g295
L343L
ssL322L
(dp457
g297
L344L
ssL323L
(dp458
g37
L65L
sg377
L345L
sg38
L67L
ssL324L
(dp459
sL325L
(dp460
sL326L
(dp461
sL327L
(dp462
Vnewline_list
p463
L346L
ssL328L
(dp464
Vnewline_list
p465
L347L
ssL329L
(dp466
Vnewline_list
p467
L348L
ssL330L
(dp468
sL331L
(dp469
sL332L
(dp470
sL333L
(dp471
Vcompound_list
p472
L353L
sg333
L65L
sg38
L67L
ssL334L
(dp473
Vcompound_list
p474
L354L
sVnewline_list
p475
L65L
sg38
L67L
ssL335L
(dp476
Vcompound_list
p477
L355L
sg335
L65L
sg38
L67L
ssL336L
(dp478
Vcompound_list
p479
L356L
sVnewline_list
p480
L65L
sg38
L67L
ssL337L
(dp481
Vassignment_on
p482
L357L
ssL338L
(dp483
sL339L
(dp484
g2
L33L
sg3
L3L
sg5
L20L
sg6
L34L
sg9
L8L
sg7
L15L
sg8
L49L
sg114
L142L
sg10
L44L
sg115
L141L
sg13
L11L
sg14
L25L
sg16
L27L
sg17
L28L
sg18
L16L
sg19
L50L
sg116
L139L
sg21
L17L
sg25
L40L
sg23
L41L
sg24
L42L
sg12
L45L
ssL340L
(dp485
sL341L
(dp486
Vcompound_list
p487
L358L
sVnewline_list
p488
L359L
sg38
L67L
ssL342L
(dp489
g2
L33L
sg16
L27L
sg3
L3L
sg5
L20L
sg6
L34L
sg18
L16L
sg116
L139L
sg7
L15L
sg8
L49L
sg362
L287L
sg10
L44L
sg19
L50L
sg21
L17L
sg25
L40L
sg12
L45L
sg14
L25L
sg13
L11L
sg24
L42L
sg9
L8L
sg17
L28L
sg23
L41L
ssL343L
(dp490
g2
L33L
sg16
L27L
sg3
L3L
sg5
L20L
sg6
L34L
sg18
L16L
sg116
L139L
sg7
L15L
sg8
L49L
sg364
L288L
sg10
L44L
sg19
L50L
sg21
L17L
sg25
L40L
sg12
L45L
sg14
L25L
sg13
L11L
sg24
L42L
sg9
L8L
sg17
L28L
sg23
L41L
ssL344L
(dp491
g2
L33L
sg16
L27L
sg3
L3L
sg5
L20L
sg6
L34L
sg18
L16L
sg116
L139L
sg7
L15L
sg8
L49L
sg366
L289L
sg10
L44L
sg19
L50L
sg21
L17L
sg25
L40L
sg12
L45L
sg14
L25L
sg13
L11L
sg24
L42L
sg9
L8L
sg17
L28L
sg23
L41L
ssL345L
(dp492
Velif_clause
p493
L361L
ssL346L
(dp494
g2
L33L
sg16
L27L
sg3
L3L
sg5
L20L
sg6
L34L
sg18
L16L
sg116
L139L
sg7
L15L
sg8
L49L
sg387
L287L
sg10
L44L
sg19
L50L
sg21
L17L
sg25
L40L
sg12
L45L
sg14
L25L
sg13
L11L
sg24
L42L
sg9
L8L
sg17
L28L
sg23
L41L
ssL347L
(dp495
g2
L33L
sg16
L27L
sg3
L3L
sg5
L20L
sg6
L34L
sg18
L16L
sg116
L139L
sg7
L15L
sg8
L49L
sVlist1
p496
L288L
sg10
L44L
sg19
L50L
sg21
L17L
sg25
L40L
sg12
L45L
sg14
L25L
sg13
L11L
sg24
L42L
sg9
L8L
sg17
L28L
sg23
L41L
ssL348L
(dp497
g2
L33L
sg16
L27L
sg3
L3L
sg5
L20L
sg6
L34L
sg18
L16L
sg116
L139L
sg7
L15L
sg8
L49L
sVlist1
p498
L289L
sg10
L44L
sg19
L50L
sg21
L17L
sg25
L40L
sg12
L45L
sg14
L25L
sg13
L11L
sg24
L42L
sg9
L8L
sg17
L28L
sg23
L41L
ssL349L
(dp499
g390
L260L
sVlist
p500
L362L
ssL350L
(dp501
Vnewline_list
p502
L260L
sVlist
p503
L363L
ssL351L
(dp504
sL352L
(dp505
sL353L
(dp506
sL354L
(dp507
sL355L
(dp508
sL356L
(dp509
sL357L
(dp510
sL358L
(dp511
sL359L
(dp512
g2
L33L
sg3
L3L
sg5
L20L
sg6
L34L
sg9
L8L
sg7
L15L
sg8
L49L
sg114
L142L
sg10
L44L
sg115
L141L
sg13
L11L
sg14
L25L
sg16
L27L
sg17
L28L
sg18
L16L
sg19
L50L
sg116
L139L
sg21
L17L
sg25
L40L
sg23
L41L
sg24
L42L
sg12
L45L
ssL360L
(dp513
Vcompound_list
p514
L368L
sg37
L65L
sg38
L67L
ssL361L
(dp515
sL362L
(dp516
sL363L
(dp517
sL364L
(dp518
sL365L
(dp519
sL366L
(dp520
sL367L
(dp521
sL368L
(dp522
sL369L
(dp523
sL370L
(dp524
s.(lp0
(VS' -> inputunit_list
p1
VS'
p2
L1L
NNNtp3
a(Vinputunit_list -> inputunit
p4
Vinputunit_list
p5
L1L
Vp_inputunit_list
p6
Vbash.py
p7
L102L
tp8
a(Vinputunit_list -> inputunit_list inputunit
p9
g5
L2L
g6
Vbash.py
p10
L103L
tp11
a(Vinputunit -> simple_list simple_list_terminator
p12
Vinputunit
p13
L2L
Vp_inputunit
p14
Vbash.py
p15
L111L
tp16
a(Vinputunit -> NEWLINE
p17
g13
L1L
g14
Vbash.py
p18
L112L
tp19
a(Vword_list -> WORD
p20
Vword_list
p21
L1L
Vp_word_list_word
p22
Vbash.py
p23
L120L
tp24
a(Vword_list -> word_list newline_list WORD
p25
Vword_list
p26
L3L
Vp_word_list_list
p27
Vbash.py
p28
L128L
tp29
a(Vredirection -> > WORD
p30
Vredirection
p31
L2L
Vp_redirection
p32
Vbash.py
p33
L136L
tp34
a(Vredirection -> < WORD
p35
g31
L2L
g32
Vbash.py
p36
L137L
tp37
a(Vredirection -> NUMBER > WORD
p38
g31
L3L
g32
Vbash.py
p39
L138L
tp40
a(Vredirection -> NUMBER < WORD
p41
g31
L3L
g32
Vbash.py
p42
L139L
tp43
a(Vredirection -> REDIR_WORD > WORD
p44
g31
L3L
g32
Vbash.py
p45
L140L
tp46
a(Vredirection -> REDIR_WORD < WORD
p47
g31
L3L
g32
Vbash.py
p48
L141L
tp49
a(Vredirection -> GREATER_GREATER WORD
p50
g31
L2L
g32
Vbash.py
p51
L142L
tp52
a(Vredirection -> NUMBER GREATER_GREATER WORD
p53
g31
L3L
g32
Vbash.py
p54
L143L
tp55
a(Vredirection -> REDIR_WORD GREATER_GREATER WORD
p56
g31
L3L
g32
Vbash.py
p57
L144L
tp58
a(Vredirection -> GREATER_BAR WORD
p59
g31
L2L
g32
Vbash.py
p60
L145L
tp61
a(Vredirection -> NUMBER GREATER_BAR WORD
p62
g31
L3L
g32
Vbash.py
p63
L146L
tp64
a(Vredirection -> REDIR_WORD GREATER_BAR WORD
p65
g31
L3L
g32
Vbash.py
p66
L147L
tp67
a(Vredirection -> LESS_GREATER WORD
p68
g31
L2L
g32
Vbash.py
p69
L148L
tp70
a(Vredirection -> NUMBER LESS_GREATER WORD
p71
g31
L3L
g32
Vbash.py
p72
L149L
tp73
a(Vredirection -> REDIR_WORD LESS_GREATER WORD
p74
g31
L3L
g32
Vbash.py
p75
L150L
tp76
a(Vredirection -> LESS_LESS WORD
p77
g31
L2L
g32
Vbash.py
p78
L151L
tp79
a(Vredirection -> NUMBER LESS_LESS WORD
p80
g31
L3L
g32
Vbash.py
p81
L152L
tp82
a(Vredirection -> REDIR_WORD LESS_LESS WORD
p83
g31
L3L
g32
Vbash.py
p84
L153L
tp85
a(Vredirection -> LESS_LESS_MINUS WORD
p86
g31
L2L
g32
Vbash.py
p87
L154L
tp88
a(Vredirection -> NUMBER LESS_LESS_MINUS WORD
p89
g31
L3L
g32
Vbash.py
p90
L155L
tp91
a(Vredirection -> REDIR_WORD LESS_LESS_MINUS WORD
p92
g31
L3L
g32
Vbash.py
p93
L156L
tp94
a(Vredirection -> LESS_LESS_LESS WORD
p95
g31
L2L
g32
Vbash.py
p96
L157L
tp97
a(Vredirection -> NUMBER LESS_LESS_LESS WORD
p98
g31
L3L
g32
Vbash.py
p99
L158L
tp100
a(Vredirection -> REDIR_WORD LESS_LESS_LESS WORD
p101
g31
L3L
g32
Vbash.py
p102
L159L
tp103
a(Vredirection -> LESS_AND NUMBER
p104
g31
L2L
g32
Vbash.py
p105
L160L
tp106
a(Vredirection -> NUMBER LESS_AND NUMBER
p107
g31
L3L
g32
Vbash.py
p108
L161L
tp109
a(Vredirection -> REDIR_WORD LESS_AND NUMBER
p110
g31
L3L
g32
Vbash.py
p111
L162L
tp112
a(Vredirection -> GREATER_AND NUMBER
p113
g31
L2L
g32
Vbash.py
p114
L163L
tp115
a(Vredirection -> NUMBER GREATER_AND NUMBER
p116
g31
L3L
g32
Vbash.py
p117
L164L
tp118
a(Vredirection -> REDIR_WORD GREATER_AND NUMBER
p119
g31
L3L
g32
Vbash.py
p120
L165L
tp121
a(Vredirection -> LESS_AND WORD
p122
g31
L2L
g32
Vbash.py
p123
L166L
tp124
a(Vredirection -> NUMBER LESS_AND WORD
p125
g31
L3L
g32
Vbash.py
p126
L167L
tp127
a(Vredirection -> REDIR_WORD LESS_AND WORD
p128
g31
L3L
g32
Vbash.py
p129
L168L
tp130
a(Vredirection -> GREATER_AND WORD
p131
g31
L2L
g32
Vbash.py
p132
L169L
tp133
a(Vredirection -> NUMBER GREATER_AND WORD
p134
g31
L3L
g32
Vbash.py
p135
L170L
tp136
a(Vredirection -> REDIR_WORD GREATER_AND WORD
p137
g31
L3L
g32
Vbash.py
p138
L171L
tp139
a(Vredirection -> GREATER_AND -
p140
g31
L2L
g32
Vbash.py
p141
L172L
tp142
a(Vredirection -> NUMBER GREATER_AND -
p143
g31
L3L
g32
Vbash.py
p144
L173L
tp145
a(Vredirection -> REDIR_WORD GREATER_AND -
p146
g31
L3L
g32
Vbash.py
p147
L174L
tp148
a(Vredirection -> LESS_AND -
p149
g31
L2L
g32
Vbash.py
p150
L175L
tp151
a(Vredirection -> NUMBER LESS_AND -
p152
g31
L3L
g32
Vbash.py
p153
L176L
tp154
a(Vredirection -> REDIR_WORD LESS_AND -
p155
g31
L3L
g32
Vbash.py
p156
L177L
tp157
a(Vredirection -> AND_GREATER WORD
p158
g31
L2L
g32
Vbash.py
p159
L178L
tp160
a(Vredirection -> AND_GREATER_GREATER WORD
p161
g31
L2L
g32
Vbash.py
p162
L179L
tp163
a(Vsimple_command_element -> WORD
p164
Vsimple_command_element
p165
L1L
Vp_simple_command_element_word
p166
Vbash.py
p167
L187L
tp168
a(Vsimple_command_element -> assignment_word
p169
Vsimple_command_element
p170
L1L
Vp_simple_command_element_assignment
p171
Vbash.py
p172
L195L
tp173
a(Vsimple_command_element -> redirection
p174
Vsimple_command_element
p175
L1L
Vp_simple_command_element_redirection
p176
Vbash.py
p177
L203L
tp178
a(Vredirection_list -> redirection
p179
Vredirection_list
p180
L1L
Vp_redirection_list
p181
Vbash.py
p182
L211L
tp183
a(Vredirection_list -> redirection_list redirection
p184
g180
L2L
g181
Vbash.py
p185
L212L
tp186
a(Vsimple_command -> simple_command_element
p187
Vsimple_command
p188
L1L
Vp_simple_command
p189
Vbash.py
p190
L220L
tp191
a(Vsimple_command -> simple_command curly_off simple_command_element
p192
g188
L3L
g189
Vbash.py
p193
L221L
tp194
a(Vcommand -> simple_command curly_on
p195
Vcommand
p196
L2L
Vp_command
p197
Vbash.py
p198
L229L
tp199
a(Vcommand -> shell_command
p200
g196
L1L
g197
Vbash.py
p201
L230L
tp202
a(Vcommand -> shell_command redirection_list
p203
g196
L2L
g197
Vbash.py
p204
L231L
tp205
a(Vcommand -> function_def
p206
g196
L1L
g197
Vbash.py
p207
L232L
tp208
a(Vcommand -> coproc
p209
g196
L1L
g197
Vbash.py
p210
L233L
tp211
a(Vshell_command -> for_command
p212
Vshell_command
p213
L1L
Vp_shell_commend
p214
Vbash.py
p215
L243L
tp216
a(Vshell_command -> case_command
p217
g213
L1L
g214
Vbash.py
p218
L244L
tp219
a(Vshell_command -> WHILE compound_list DO compound_list DONE
p220
g213
L5L
g214
Vbash.py
p221
L245L
tp222
a(Vshell_command -> UNTIL compound_list DO compound_list DONE
p223
g213
L5L
g214
Vbash.py
p224
L246L
tp225
a(Vshell_command -> select_command
p226
g213
L1L
g214
Vbash.py
p227
L247L
tp228
a(Vshell_command -> if_command
p229
g213
L1L
g214
Vbash.py
p230
L248L
tp231
a(Vshell_command -> subshell
p232
g213
L1L
g214
Vbash.py
p233
L249L
tp234
a(Vshell_command -> group_command
p235
g213
L1L
g214
Vbash.py
p236
L250L
tp237
a(Vshell_command -> arith_command
p238
g213
L1L
g214
Vbash.py
p239
L251L
tp240
a(Vshell_command -> cond_command
p241
g213
L1L
g214
Vbash.py
p242
L252L
tp243
a(Vshell_command -> arith_for_command
p244
g213
L1L
g214
Vbash.py
p245
L253L
tp246
a(Vfor_command -> FOR WORD newline_list DO compound_list DONE
p247
Vfor_command
p248
L6L
Vp_for_command
p249
Vbash.py
p250
L261L
tp251
a(Vfor_command -> FOR WORD newline_list LBRACE compound_list }
p252
g248
L6L
g249
Vbash.py
p253
L262L
tp254
a(Vfor_command -> FOR WORD ; newline_list DO compound_list DONE
p255
g248
L7L
g249
Vbash.py
p256
L263L
tp257
a(Vfor_command -> FOR WORD ; newline_list LBRACE compound_list }
p258
g248
L7L
g249
Vbash.py
p259
L264L
tp260
a(Vfor_command -> FOR WORD newline_list IN word_list list_terminator newline_list DO compound_list DONE
p261
g248
L10L
g249
Vbash.py
p262
L265L
tp263
a(Vfor_command -> FOR WORD newline_list IN word_list list_terminator newline_list LBRACE compound_list }
p264
g248
L10L
g249
Vbash.py
p265
L266L
tp266
a(Vfor_command -> FOR WORD newline_list IN number_list list_terminator newline_list DO compound_list DONE
p267
g248
L10L
g249
Vbash.py
p268
L267L
tp269
a(Vfor_command -> FOR WORD newline_list IN number_list list_terminator newline_list LBRACE compound_list }
p270
g248
L10L
g249
Vbash.py
p271
L268L
tp272
a(Vfor_command -> FOR WORD newline_list IN list_terminator newline_list DO compound_list DONE
p273
g248
L9L
g249
Vbash.py
p274
L269L
tp275
a(Vfor_command -> FOR WORD newline_list IN list_terminator newline_list LBRACE compound_list }
p276
g248
L9L
g249
Vbash.py
p277
L270L
tp278
a(Varith_for_command -> FOR ARITH_FOR_EXPRS list_terminator newline_list DO compound_list DONE
p279
Varith_for_command
p280
L7L
Vp_arith_for_command
p281
Vbash.py
p282
L278L
tp283
a(Varith_for_command -> FOR ARITH_FOR_EXPRS list_terminator newline_list LBRACE compound_list }
p284
g280
L7L
g281
Vbash.py
p285
L279L
tp286
a(Varith_for_command -> FOR ARITH_FOR_EXPRS DO compound_list DONE
p287
g280
L5L
g281
Vbash.py
p288
L280L
tp289
a(Varith_for_command -> FOR ARITH_FOR_EXPRS LBRACE compound_list }
p290
g280
L5L
g281
Vbash.py
p291
L281L
tp292
a(Vselect_command -> SELECT WORD newline_list DO list DONE
p293
Vselect_command
p294
L6L
Vp_select_command
p295
Vbash.py
p296
L289L
tp297
a(Vselect_command -> SELECT WORD newline_list LBRACE list }
p298
g294
L6L
g295
Vbash.py
p299
L290L
tp300
a(Vselect_command -> SELECT WORD ; newline_list DO list DONE
p301
g294
L7L
g295
Vbash.py
p302
L291L
tp303
a(Vselect_command -> SELECT WORD ; newline_list LBRACE list }
p304
g294
L7L
g295
Vbash.py
p305
L292L
tp306
a(Vselect_command -> SELECT WORD newline_list IN word_list list_terminator newline_list DO list DONE
p307
g294
L10L
g295
Vbash.py
p308
L293L
tp309
a(Vselect_command -> SELECT WORD newline_list IN word_list list_terminator newline_list LBRACE list }
p310
g294
L10L
g295
Vbash.py
p311
L294L
tp312
a(Vcase_command -> CASE WORD newline_list IN newline_list ESAC
p313
Vcase_command
p314
L6L
Vp_case_command
p315
Vbash.py
p316
L302L
tp317
a(Vcase_command -> CASE WORD newline_list IN case_clause_sequence newline_list ESAC
p318
g314
L7L
g315
Vbash.py
p319
L303L
tp320
a(Vcase_command -> CASE WORD newline_list IN case_clause ESAC
p321
g314
L6L
g315
Vbash.py
p322
L304L
tp323
a(Vfunction_def -> WORD ( ) newline_list function_body
p324
Vfunction_def
p325
L5L
Vp_function_def_without_keyword
p326
Vbash.py
p327
L312L
tp328
a(Vfunction_def -> FUNCTION WORD ( ) newline_list function_body
p329
Vfunction_def
p330
L6L
Vp_function_def_with_keyword_and_parens
p331
Vbash.py
p332
L320L
tp333
a(Vfunction_def -> FUNCTION WORD newline_list function_body
p334
Vfunction_def
p335
L4L
Vp_function_def
p336
Vbash.py
p337
L328L
tp338
a(Vfunction_body -> shell_command
p339
Vfunction_body
p340
L1L
Vp_function_body
p341
Vbash.py
p342
L336L
tp343
a(Vfunction_body -> shell_command redirection_list
p344
g340
L2L
g341
Vbash.py
p345
L337L
tp346
a(Vsubshell -> ( compound_list )
p347
Vsubshell
p348
L3L
Vp_subshell
p349
Vbash.py
p350
L345L
tp351
a(Vcoproc -> COPROC shell_command
p352
Vcoproc
p353
L2L
Vp_coproc
p354
Vbash.py
p355
L351L
tp356
a(Vcoproc -> COPROC shell_command redirection_list
p357
g353
L3L
g354
Vbash.py
p358
L352L
tp359
a(Vcoproc -> COPROC WORD shell_command
p360
g353
L3L
g354
Vbash.py
p361
L353L
tp362
a(Vcoproc -> COPROC WORD shell_command redirection_list
p363
g353
L4L
g354
Vbash.py
p364
L354L
tp365
a(Vcoproc -> COPROC simple_command
p366
g353
L2L
g354
Vbash.py
p367
L355L
tp368
a(Vif_command -> IF compound_list THEN compound_list FI
p369
Vif_command
p370
L5L
Vp_if_command
p371
Vbash.py
p372
L363L
tp373
a(Vif_command -> IF compound_list THEN compound_list ELSE compound_list FI
p374
g370
L7L
g371
Vbash.py
p375
L364L
tp376
a(Vif_command -> IF compound_list THEN compound_list elif_clause FI
p377
g370
L6L
g371
Vbash.py
p378
L365L
tp379
a(Vgroup_command -> LBRACE compound_list }
p380
Vgroup_command
p381
L3L
Vp_group_command
p382
Vbash.py
p383
L373L
tp384
a(Varith_command -> ARITH_CMD
p385
Varith_command
p386
L1L
Vp_arith_command
p387
Vbash.py
p388
L379L
tp389
a(Vcond_command -> COND_START COND_CMD COND_END
p390
Vcond_command
p391
L3L
Vp_cond_command
p392
Vbash.py
p393
L385L
tp394
a(Velif_clause -> ELIF compound_list THEN compound_list
p395
Velif_clause
p396
L4L
Vp_elif_clause
p397
Vbash.py
p398
L391L
tp399
a(Velif_clause -> ELIF compound_list THEN compound_list ELSE compound_list
p400
g396
L6L
g397
Vbash.py
p401
L392L
tp402
a(Velif_clause -> ELIF compound_list THEN compound_list elif_clause
p403
g396
L5L
g397
Vbash.py
p404
L393L
tp405
a(Vcase_clause -> pattern_list
p406
Vcase_clause
p407
L1L
Vp_case_clause
p408
Vbash.py
p409
L401L
tp410
a(Vcase_clause -> case_clause_sequence pattern_list
p411
g407
L2L
g408
Vbash.py
p412
L402L
tp413
a(Vpattern_list -> newline_list pattern ) compound_list
p414
Vpattern_list
p415
L4L
Vp_pattern_list
p416
Vbash.py
p417
L410L
tp418
a(Vpattern_list -> newline_list pattern ) newline_list
p419
g415
L4L
g416
Vbash.py
p420
L411L
tp421
a(Vpattern_list -> newline_list ( pattern ) compound_list
p422
g415
L5L
g416
Vbash.py
p423
L412L
tp424
a(Vpattern_list -> newline_list ( pattern ) newline_list
p425
g415
L5L
g416
Vbash.py
p426
L413L
tp427
a(Vcase_clause_sequence -> pattern_list SEMI_SEMI
p428
Vcase_clause_sequence
p429
L2L
Vp_case_clause_sequence
p430
Vbash.py
p431
L421L
tp432
a(Vcase_clause_sequence -> case_clause_sequence pattern_list SEMI_SEMI
p433
g429
L3L
g430
Vbash.py
p434
L422L
tp435
a(Vcase_clause_sequence -> pattern_list SEMI_AND
p436
g429
L2L
g430
Vbash.py
p437
L423L
tp438
a(Vcase_clause_sequence -> case_clause_sequence pattern_list SEMI_AND
p439
g429
L3L
g430
Vbash.py
p440
L424L
tp441
a(Vcase_clause_sequence -> pattern_list SEMI_SEMI_AND
p442
g429
L2L
g430
Vbash.py
p443
L425L
tp444
a(Vcase_clause_sequence -> case_clause_sequence pattern_list SEMI_SEMI_AND
p445
g429
L3L
g430
Vbash.py
p446
L426L
tp447
a(Vpattern -> WORD
p448
Vpattern
p449
L1L
Vp_pattern
p450
Vbash.py
p451
L434L
tp452
a(Vpattern -> pattern | WORD
p453
g449
L3L
g450
Vbash.py
p454
L435L
tp455
a(Vlist -> newline_list list0
p456
Vlist
p457
L2L
Vp_list
p458
Vbash.py
p459
L443L
tp460
a(Vcompound_list -> list
p461
Vcompound_list
p462
L1L
Vp_compound_list
p463
Vbash.py
p464
L449L
tp465
a(Vcompound_list -> newline_list list1
p466
g462
L2L
g463
Vbash.py
p467
L450L
tp468
a(Vlist0 -> list1 NEWLINE newline_list
p469
Vlist0
p470
L3L
Vp_list0
p471
Vbash.py
p472
L458L
tp473
a(Vlist0 -> list1 & newline_list
p474
g470
L3L
g471
Vbash.py
p475
L459L
tp476
a(Vlist0 -> list1 ; newline_list
p477
g470
L3L
g471
Vbash.py
p478
L460L
tp479
a(Vlist1 -> list1 AND_AND newline_list list1
p480
Vlist1
p481
L4L
Vp_list1
p482
Vbash.py
p483
L468L
tp484
a(Vlist1 -> list1 OR_OR newline_list list1
p485
g481
L4L
g482
Vbash.py
p486
L469L
tp487
a(Vlist1 -> list1 & newline_list list1
p488
g481
L4L
g482
Vbash.py
p489
L470L
tp490
a(Vlist1 -> list1 ; newline_list list1
p491
g481
L4L
g482
Vbash.py
p492
L471L
tp493
a(Vlist1 -> list1 NEWLINE newline_list list1
p494
g481
L4L
g482
Vbash.py
p495
L472L
tp496
a(Vlist1 -> pipeline_command
p497
g481
L1L
g482
Vbash.py
p498
L473L
tp499
a(Vsimple_list_terminator -> NEWLINE
p500
Vsimple_list_terminator
p501
L1L
Vp_simple_list_terminator
p502
Vbash.py
p503
L481L
tp504
a(Vlist_terminator -> NEWLINE
p505
Vlist_terminator
p506
L1L
Vp_list_terminator
p507
Vbash.py
p508
L487L
tp509
a(Vlist_terminator -> ;
p510
g506
L1L
g507
Vbash.py
p511
L488L
tp512
a(Vnewline_list -> <empty>
p513
Vnewline_list
p514
L0L
Vp_newline_list
p515
Vbash.py
p516
L496L
tp517
a(Vnewline_list -> newline_list NEWLINE
p518
g514
L2L
g515
Vbash.py
p519
L497L
tp520
a(Vsimple_list -> simple_list1
p521
Vsimple_list
p522
L1L
Vp_simple_list
p523
Vbash.py
p524
L505L
tp525
a(Vsimple_list -> simple_list1 &
p526
g522
L2L
g523
Vbash.py
p527
L506L
tp528
a(Vsimple_list -> simple_list1 ;
p529
g522
L2L
g523
Vbash.py
p530
L507L
tp531
a(Vsimple_list1 -> simple_list1 AND_AND newline_list simple_list1
p532
Vsimple_list1
p533
L4L
Vp_simple_list1_list_with_newlines
p534
Vbash.py
p535
L517L
tp536
a(Vsimple_list1 -> simple_list1 OR_OR newline_list simple_list1
p537
g533
L4L
g534
Vbash.py
p538
L518L
tp539
a(Vsimple_list1 -> simple_list1 & simple_list1
p540
Vsimple_list1
p541
L3L
Vp_simple_list1_list
p542
Vbash.py
p543
L528L
tp544
a(Vsimple_list1 -> simple_list1 ; simple_list1
p545
g541
L3L
g542
Vbash.py
p546
L529L
tp547
a(Vsimple_list1 -> pipeline_command
p548
Vsimple_list1
p549
L1L
Vp_simple_list1_command
p550
Vbash.py
p551
L539L
tp552
a(Vpipeline_command -> pipeline
p553
Vpipeline_command
p554
L1L
Vp_pipeline_command_unmodified
p555
Vbash.py
p556
L547L
tp557
a(Vpipeline_command -> BANG pipeline_command
p558
Vpipeline_command
p559
L2L
Vp_pipeline_command_modified
p560
Vbash.py
p561
L555L
tp562
a(Vpipeline_command -> timespec pipeline_command
p563
g559
L2L
g560
Vbash.py
p564
L556L
tp565
a(Vpipeline_command -> timespec list_terminator
p566
g559
L2L
g560
Vbash.py
p567
L557L
tp568
a(Vpipeline_command -> BANG list_terminator
p569
g559
L2L
g560
Vbash.py
p570
L558L
tp571
a(Vpipeline -> pipeline | newline_list pipeline
p572
Vpipeline
p573
L4L
Vp_pipeline_with_pipe
p574
Vbash.py
p575
L568L
tp576
a(Vpipeline -> pipeline BAR_AND newline_list pipeline
p577
g573
L4L
g574
Vbash.py
p578
L569L
tp579
a(Vpipeline -> command
p580
Vpipeline
p581
L1L
Vp_pipeline_with_command
p582
Vbash.py
p583
L579L
tp584
a(Vtimespec -> TIME
p585
Vtimespec
p586
L1L
Vp_timespec
p587
Vbash.py
p588
L587L
tp589
a(Vtimespec -> TIME TIMEOPT
p590
g586
L2L
g587
Vbash.py
p591
L588L
tp592
a(Vtimespec -> TIME TIMEOPT TIMEIGN
p593
g586
L3L
g587
Vbash.py
p594
L589L
tp595
a(Vnumber_list -> NUMBER
p596
Vnumber_list
p597
L1L
Vp_number_list_number
p598
Vbash.py
p599
L601L
tp600
a(Vnumber_list -> number_list newline_list NUMBER
p601
Vnumber_list
p602
L3L
Vp_number_list_list
p603
Vbash.py
p604
L609L
tp605
a(Vassignment_word -> WORD = assignment_off ( newline_list word_list newline_list ) assignment_on
p606
Vassignment_word
p607
L9L
Vp_assignment_word_array
p608
Vbash.py
p609
L617L
tp610
a(Vassignment_word -> WORD = NUMBER
p611
Vassignment_word
p612
L3L
Vp_assignment_word_number
p613
Vbash.py
p614
L630L
tp615
a(Vassignment_word -> WORD = assignment_off WORD assignment_on
p616
Vassignment_word
p617
L5L
Vp_assignment_word_word
p618
Vbash.py
p619
L643L
tp620
a(Vassignment_off -> <empty>
p621
Vassignment_off
p622
L0L
Vp_assignment_off
p623
Vbash.py
p624
L662L
tp625
a(Vassignment_on -> <empty>
p626
Vassignment_on
p627
L0L
Vp_assignment_on
p628
Vbash.py
p629
L667L
tp630
a(Vsimple_command_element -> NUMBER
p631
Vsimple_command_element
p632
L1L
Vp_simple_command_element_number
p633
Vbash.py
p634
L672L
tp635
a(Vcurly_off -> <empty>
p636
Vcurly_off
p637
L0L
Vp_curly_off
p638
Vbash.py
p639
L680L
tp640
a(Vcurly_on -> <empty>
p641
Vcurly_on
p642
L0L
Vp_curly_on
p643
Vbash.py
p644
L685L
tp645
a.