V3.10
p0
.VLALR
p0
.Vinputunit_listleft&;NEWLINEleftAND_ANDOR_ORright|BAR_ANDAND_AND AND_GREATER AND_GREATER_GREATER ARITH_CMD ARITH_FOR_EXPRS BANG BAR_AND CASE COMMENT COND_CMD COND_END COND_START COPROC DO DONE ELIF ELSE ESAC FI FOR FUNCTION GREATER_AND GREATER_BAR GREATER_GREATER IF IN LBRACE LESS_AND LESS_GREATER LESS_LESS LESS_LESS_LESS LESS_LESS_MINUS NEWLINE NEWLINE_ESCAPED NUMBER OR_OR REDIR_WORD SELECT SEMI_AND SEMI_SEMI SEMI_SEMI_AND THEN TIME TIMEIGN TIMEOPT UNTIL WHILE WHITESPACE WORDinputunit_list : inputunit\u000a        | inputunit_list inputunit\u000a\u000a        inputunit : simple_list simple_list_terminator\u000a        | NEWLINE\u000a\u000a        word_list : WORDword_list : word_list newline_list WORDredirection : '>' WORD\u000a        | '<' WORD\u000a        | NUMBER '>' WORD\u000a        | NUMBER '<' WORD\u000a        | REDIR_WORD '>' WORD\u000a        | REDIR_WORD '<' WORD\u000a        | GREATER_GREATER WORD\u000a        | NUMBER GREATER_GREATER WORD\u000a        | REDIR_WORD GREATER_GREATER WORD\u000a        | GREATER_BAR WORD\u000a        | NUMBER GREATER_BAR WORD\u000a        | REDIR_WORD GREATER_BAR WORD\u000a        | LESS_GREATER WORD\u000a        | NUMBER LESS_GREATER WORD\u000a        | REDIR_WORD LESS_GREATER WORD\u000a        | LESS_LESS WORD\u000a        | NUMBER LESS_LESS WORD\u000a        | REDIR_WORD LESS_LESS WORD\u000a        | LESS_LESS_MINUS WORD\u000a        | NUMBER LESS_LESS_MINUS WORD\u000a        | REDIR_WORD LESS_LESS_MINUS WORD\u000a        | LESS_LESS_LESS WORD\u000a        | NUMBER LESS_LESS_LESS WORD\u000a        | REDIR_WORD LESS_LESS_LESS WORD\u000a        | LESS_AND NUMBER\u000a        | NUMBER LESS_AND NUMBER\u000a        | REDIR_WORD LESS_AND NUMBER\u000a        | GREATER_AND NUMBER\u000a        | NUMBER GREATER_AND NUMBER\u000a        | REDIR_WORD GREATER_AND NUMBER\u000a        | LESS_AND WORD\u000a        | NUMBER LESS_AND WORD\u000a        | REDIR_WORD LESS_AND WORD\u000a        | GREATER_AND WORD\u000a        | NUMBER GREATER_AND WORD\u000a        | REDIR_WORD GREATER_AND WORD\u000a        | GREATER_AND '-'\u000a        | NUMBER GREATER_AND '-'\u000a        | REDIR_WORD GREATER_AND '-'\u000a        | LESS_AND '-'\u000a        | NUMBER LESS_AND '-'\u000a        | REDIR_WORD LESS_AND '-'\u000a        | AND_GREATER WORD\u000a        | AND_GREATER_GREATER WORD\u000a\u000a        simple_command_element : WORDsimple_command_element : assignment_wordsimple_command_element : redirectionredirection_list : redirection\u000a        | redirection_list redirection\u000a\u000a        simple_command : simple_command_element\u000a        | simple_command curly_off simple_command_element\u000a\u000a        command : simple_command curly_on\u000a        | shell_command\u000a        | shell_command redirection_list\u000a        | function_def\u000a        | coproc\u000a\u000a        shell_command : for_command\u000a        | case_command\u000a        | WHILE compound_list DO compound_list DONE\u000a        | UNTIL compound_list DO compound_list DONE\u000a        | select_command\u000a        | if_command\u000a        | subshell\u000a        | group_command\u000a        | arith_command\u000a        | cond_command\u000a        | arith_for_command\u000a\u000a        for_command : FOR WORD newline_list DO compound_list DONE\u000a        | FOR WORD newline_list LBRACE compound_list '}'\u000a        | FOR WORD ';' newline_list DO compound_list DONE\u000a        | FOR WORD ';' newline_list LBRACE compound_list '}'\u000a        | FOR WORD newline_list IN word_list list_terminator newline_list DO compound_list DONE\u000a        | FOR WORD newline_list IN word_list list_terminator newline_list LBRACE compound_list '}'\u000a        | FOR WORD newline_list IN number_list list_terminator newline_list DO compound_list DONE\u000a        | FOR WORD newline_list IN number_list list_terminator newline_list LBRACE compound_list '}'\u000a        | FOR WORD newline_list IN list_terminator newline_list DO compound_list DONE\u000a        | FOR WORD newline_list IN list_terminator newline_list LBRACE compound_list '}'\u000a\u000a        arith_for_command : FOR ARITH_FOR_EXPRS list_terminator newline_list DO compound_list DONE\u000a        | FOR ARITH_FOR_EXPRS list_terminator newline_list LBRACE compound_list '}'\u000a        | FOR ARITH_FOR_EXPRS DO compound_list DONE\u000a        | FOR ARITH_FOR_EXPRS LBRACE compound_list '}'\u000a\u000a        select_command : SELECT WORD newline_list DO list DONE\u000a        | SELECT WORD newline_list LBRACE list '}'\u000a        | SELECT WORD ';' newline_list DO list DONE\u000a        | SELECT WORD ';' newline_list LBRACE list '}'\u000a        | SELECT WORD newline_list IN word_list list_terminator newline_list DO list DONE\u000a        | SELECT WORD newline_list IN word_list list_terminator newline_list LBRACE list '}'\u000a\u000a        case_command : CASE WORD newline_list IN newline_list ESAC\u000a        | CASE WORD newline_list IN case_clause_sequence newline_list ESAC\u000a        | CASE WORD newline_list IN case_clause ESAC\u000a\u000a        function_def : WORD '(' ')' newline_list function_bodyfunction_def : FUNCTION WORD '(' ')' newline_list function_bodyfunction_def : FUNCTION WORD newline_list function_bodyfunction_body : shell_command\u000a        | shell_command redirection_list\u000a\u000a        subshell : '(' compound_list ')'coproc : COPROC shell_command\u000a        | COPROC shell_command redirection_list\u000a        | COPROC WORD shell_command\u000a        | COPROC WORD shell_command redirection_list\u000a        | COPROC simple_command\u000a\u000a        if_command : IF compound_list THEN compound_list FI\u000a        | IF compound_list THEN compound_list ELSE compound_list FI\u000a        | IF compound_list THEN compound_list elif_clause FI\u000a\u000a        group_command : LBRACE compound_list '}'arith_command : ARITH_CMDcond_command : COND_START COND_CMD COND_ENDelif_clause : ELIF compound_list THEN compound_list\u000a        | ELIF compound_list THEN compound_list ELSE compound_list\u000a        | ELIF compound_list THEN compound_list elif_clause\u000a\u000a        case_clause : pattern_list\u000a        | case_clause_sequence pattern_list\u000a\u000a        pattern_list : newline_list pattern ')' compound_list\u000a        | newline_list pattern ')' newline_list\u000a        | newline_list '(' pattern ')' compound_list\u000a        | newline_list '(' pattern ')' newline_list\u000a\u000a        case_clause_sequence : pattern_list SEMI_SEMI\u000a        | case_clause_sequence pattern_list SEMI_SEMI\u000a        | pattern_list SEMI_AND\u000a        | case_clause_sequence pattern_list SEMI_AND\u000a        | pattern_list SEMI_SEMI_AND\u000a        | case_clause_sequence pattern_list SEMI_SEMI_AND\u000a\u000a        pattern : WORD\u000a        | pattern '|' WORD\u000a\u000a        list : newline_list list0compound_list : list\u000a        | newline_list list1\u000a\u000a        list0 : list1 NEWLINE newline_list\u000a        | list1 '&' newline_list\u000a        | list1 ';' newline_list\u000a\u000a        list1 : list1 AND_AND newline_list list1\u000a        | list1 OR_OR newline_list list1\u000a        | list1 '&' newline_list list1\u000a        | list1 ';' newline_list list1\u000a        | list1 NEWLINE newline_list list1\u000a        | pipeline_command\u000a\u000a        simple_list_terminator : NEWLINElist_terminator : NEWLINE\u000a        | ';'\u000a\u000a        newline_list :\u000a\u000a        | newline_list NEWLINE\u000a        simple_list : simple_list1\u000a        | simple_list1 '&'\u000a        | simple_list1 ';'\u000a\u000a        simple_list1 : simple_list1 AND_AND newline_list simple_list1\u000a        | simple_list1 OR_OR newline_list simple_list1\u000a\u000a        simple_list1 : simple_list1 '&' simple_list1\u000a        | simple_list1 ';' simple_list1\u000a\u000a        simple_list1 : pipeline_commandpipeline_command : pipelinepipeline_command : BANG pipeline_command\u000a        | timespec pipeline_command\u000a        | timespec list_terminator\u000a        | BANG list_terminator\u000a\u000a        pipeline : pipeline '|' newline_list pipeline\u000a        | pipeline BAR_AND newline_list pipeline\u000a\u000a        pipeline : commandtimespec : TIME\u000a        | TIME TIMEOPT\u000a        | TIME TIMEOPT TIMEIGN\u000a\u000a        number_list : NUMBERnumber_list : number_list newline_list NUMBERassignment_word : WORD '=' assignment_off '(' newline_list word_list newline_list ')' assignment_onassignment_word : WORD '=' NUMBERassignment_word : WORD '=' assignment_off WORD assignment_onassignment_off :assignment_on :simple_command_element : NUMBERcurly_off :curly_on :
p0
.(dp0
I0
(dp1
VNEWLINE
p2
I4
sVBANG
p3
I8
sVTIME
p4
I11
sVWHILE
p5
I19
sVUNTIL
p6
I20
sVWORD
p7
I28
sVFUNCTION
p8
I30
sVCOPROC
p9
I31
sVNUMBER
p10
I34
sVFOR
p11
I35
sVCASE
p12
I37
sVSELECT
p13
I38
sVIF
p14
I39
sV(
p15
I29
sVLBRACE
p16
I36
sVARITH_CMD
p17
I40
sVCOND_START
p18
I41
sV>
p19
I42
sV<
p20
I43
sVREDIR_WORD
p21
I44
sVGREATER_GREATER
p22
I45
sVGREATER_BAR
p23
I46
sVLESS_GREATER
p24
I47
sVLESS_LESS
p25
I48
sVLESS_LESS_MINUS
p26
I49
sVLESS_LESS_LESS
p27
I50
sVLESS_AND
p28
I51
sVGREATER_AND
p29
I52
sVAND_GREATER
p30
I53
sVAND_GREATER_GREATER
p31
I54
ssI1
(dp32
V$end
p33
I0
sg2
I4
sg3
I8
sg4
I11
sg5
I19
sg6
I20
sg7
I28
sg8
I30
sg9
I31
sg10
I34
sg11
I35
sg12
I37
sg13
I38
sg14
I39
sg15
I29
sg16
I36
sg17
I40
sg18
I41
sg19
I42
sg20
I43
sg21
I44
sg22
I45
sg23
I46
sg24
I47
sg25
I48
sg26
I49
sg27
I50
sg28
I51
sg29
I52
sg30
I53
sg31
I54
ssI2
(dp34
g2
I-1
sg3
I-1
sg4
I-1
sg5
I-1
sg6
I-1
sg7
I-1
sg8
I-1
sg9
I-1
sg10
I-1
sg11
I-1
sg12
I-1
sg13
I-1
sg14
I-1
sg15
I-1
sg16
I-1
sg17
I-1
sg18
I-1
sg19
I-1
sg20
I-1
sg21
I-1
sg22
I-1
sg23
I-1
sg24
I-1
sg25
I-1
sg26
I-1
sg27
I-1
sg28
I-1
sg29
I-1
sg30
I-1
sg31
I-1
sg33
I-1
ssI3
(dp35
VNEWLINE
p36
I57
ssI4
(dp37
g2
I-4
sg3
I-4
sg4
I-4
sg5
I-4
sg6
I-4
sg7
I-4
sg8
I-4
sg9
I-4
sg10
I-4
sg11
I-4
sg12
I-4
sg13
I-4
sg14
I-4
sg15
I-4
sg16
I-4
sg17
I-4
sg18
I-4
sg19
I-4
sg20
I-4
sg21
I-4
sg22
I-4
sg23
I-4
sg24
I-4
sg25
I-4
sg26
I-4
sg27
I-4
sg28
I-4
sg29
I-4
sg30
I-4
sg31
I-4
sg33
I-4
ssI5
(dp38
g36
I-148
sV&
p39
I58
sV;
p40
I59
sVAND_AND
p41
I60
sVOR_OR
p42
I61
ssI6
(dp43
g39
I-155
sg40
I-155
sg41
I-155
sg42
I-155
sg36
I-155
ssI7
(dp44
g39
I-156
sg40
I-156
sg41
I-156
sg42
I-156
sg36
I-156
sVDO
p45
I-156
sV)
p46
I-156
sV}
p47
I-156
sVTHEN
p48
I-156
sVDONE
p49
I-156
sVFI
p50
I-156
sVELSE
p51
I-156
sVELIF
p52
I-156
sVSEMI_SEMI
p53
I-156
sVSEMI_AND
p54
I-156
sVSEMI_SEMI_AND
p55
I-156
sVESAC
p56
I-156
sV|
p57
I62
sVBAR_AND
p58
I63
ssI8
(dp59
g3
I8
sVNEWLINE
p60
I66
sg40
I67
sg4
I11
sg5
I19
sg6
I20
sg7
I28
sg8
I30
sg9
I31
sg10
I34
sg11
I35
sg12
I37
sg13
I38
sg14
I39
sg15
I29
sg16
I36
sg17
I40
sg18
I41
sg19
I42
sg20
I43
sg21
I44
sg22
I45
sg23
I46
sg24
I47
sg25
I48
sg26
I49
sg27
I50
sg28
I51
sg29
I52
sg30
I53
sg31
I54
ssI9
(dp61
g3
I8
sg60
I66
sg40
I67
sg4
I11
sg5
I19
sg6
I20
sg7
I28
sg8
I30
sg9
I31
sg10
I34
sg11
I35
sg12
I37
sg13
I38
sg14
I39
sg15
I29
sg16
I36
sg17
I40
sg18
I41
sg19
I42
sg20
I43
sg21
I44
sg22
I45
sg23
I46
sg24
I47
sg25
I48
sg26
I49
sg27
I50
sg28
I51
sg29
I52
sg30
I53
sg31
I54
ssI10
(dp62
g57
I-163
sg58
I-163
sg39
I-163
sg40
I-163
sg41
I-163
sg42
I-163
sg36
I-163
sg45
I-163
sg46
I-163
sg47
I-163
sg48
I-163
sg49
I-163
sg50
I-163
sg51
I-163
sg52
I-163
sg53
I-163
sg54
I-163
sg55
I-163
sg56
I-163
ssI11
(dp63
g3
I-164
sg60
I-164
sg40
I-164
sg4
I-164
sg5
I-164
sg6
I-164
sg7
I-164
sg8
I-164
sg9
I-164
sg10
I-164
sg11
I-164
sg12
I-164
sg13
I-164
sg14
I-164
sg15
I-164
sg16
I-164
sg17
I-164
sg18
I-164
sg19
I-164
sg20
I-164
sg21
I-164
sg22
I-164
sg23
I-164
sg24
I-164
sg25
I-164
sg26
I-164
sg27
I-164
sg28
I-164
sg29
I-164
sg30
I-164
sg31
I-164
sVTIMEOPT
p64
I70
ssI12
(dp65
g57
I-176
sg58
I-176
sg39
I-176
sg40
I-176
sg41
I-176
sg42
I-176
sg36
I-176
sg45
I-176
sg46
I-176
sg47
I-176
sg48
I-176
sg49
I-176
sg50
I-176
sg51
I-176
sg52
I-176
sg53
I-176
sg54
I-176
sg55
I-176
sg56
I-176
sVWORD
p66
I-175
sg10
I-175
sg19
I-175
sg20
I-175
sg21
I-175
sg22
I-175
sg23
I-175
sg24
I-175
sg25
I-175
sg26
I-175
sg27
I-175
sg28
I-175
sg29
I-175
sg30
I-175
sg31
I-175
ssI13
(dp67
g57
I-59
sg58
I-59
sg39
I-59
sg40
I-59
sg41
I-59
sg42
I-59
sg36
I-59
sg45
I-59
sg46
I-59
sg47
I-59
sg48
I-59
sg49
I-59
sg50
I-59
sg51
I-59
sg52
I-59
sg53
I-59
sg54
I-59
sg55
I-59
sg56
I-59
sg19
I42
sg20
I43
sVNUMBER
p68
I75
sg21
I44
sg22
I45
sg23
I46
sg24
I47
sg25
I48
sg26
I49
sg27
I50
sg28
I51
sg29
I52
sg30
I53
sg31
I54
ssI14
(dp69
g57
I-61
sg58
I-61
sg39
I-61
sg40
I-61
sg41
I-61
sg42
I-61
sg36
I-61
sg45
I-61
sg46
I-61
sg47
I-61
sg48
I-61
sg49
I-61
sg50
I-61
sg51
I-61
sg52
I-61
sg53
I-61
sg54
I-61
sg55
I-61
sg56
I-61
ssI15
(dp70
g57
I-62
sg58
I-62
sg39
I-62
sg40
I-62
sg41
I-62
sg42
I-62
sg36
I-62
sg45
I-62
sg46
I-62
sg47
I-62
sg48
I-62
sg49
I-62
sg50
I-62
sg51
I-62
sg52
I-62
sg53
I-62
sg54
I-62
sg55
I-62
sg56
I-62
ssI16
(dp71
g66
I-56
sg10
I-56
sg19
I-56
sg20
I-56
sg21
I-56
sg22
I-56
sg23
I-56
sg24
I-56
sg25
I-56
sg26
I-56
sg27
I-56
sg28
I-56
sg29
I-56
sg30
I-56
sg31
I-56
sg57
I-56
sg58
I-56
sg39
I-56
sg40
I-56
sg41
I-56
sg42
I-56
sg36
I-56
sg45
I-56
sg46
I-56
sg47
I-56
sg48
I-56
sg49
I-56
sg50
I-56
sg51
I-56
sg52
I-56
sg53
I-56
sg54
I-56
sg55
I-56
sg56
I-56
ssI17
(dp72
g19
I-63
sg20
I-63
sg68
I-63
sg21
I-63
sg22
I-63
sg23
I-63
sg24
I-63
sg25
I-63
sg26
I-63
sg27
I-63
sg28
I-63
sg29
I-63
sg30
I-63
sg31
I-63
sg57
I-63
sg58
I-63
sg39
I-63
sg40
I-63
sg41
I-63
sg42
I-63
sg36
I-63
sg45
I-63
sg46
I-63
sg47
I-63
sg48
I-63
sg49
I-63
sg50
I-63
sg51
I-63
sg52
I-63
sg53
I-63
sg54
I-63
sg55
I-63
sg56
I-63
ssI18
(dp73
g19
I-64
sg20
I-64
sg68
I-64
sg21
I-64
sg22
I-64
sg23
I-64
sg24
I-64
sg25
I-64
sg26
I-64
sg27
I-64
sg28
I-64
sg29
I-64
sg30
I-64
sg31
I-64
sg57
I-64
sg58
I-64
sg39
I-64
sg40
I-64
sg41
I-64
sg42
I-64
sg36
I-64
sg45
I-64
sg46
I-64
sg47
I-64
sg48
I-64
sg49
I-64
sg50
I-64
sg51
I-64
sg52
I-64
sg53
I-64
sg54
I-64
sg55
I-64
sg56
I-64
ssI19
(dp74
VNEWLINE
p75
I-146
sg3
I-146
sg4
I-146
sg5
I-146
sg6
I-146
sg7
I-146
sg8
I-146
sg9
I-146
sg10
I-146
sg11
I-146
sg12
I-146
sg13
I-146
sg14
I-146
sg15
I-146
sg16
I-146
sg17
I-146
sg18
I-146
sg19
I-146
sg20
I-146
sg21
I-146
sg22
I-146
sg23
I-146
sg24
I-146
sg25
I-146
sg26
I-146
sg27
I-146
sg28
I-146
sg29
I-146
sg30
I-146
sg31
I-146
ssI20
(dp76
g75
I-146
sg3
I-146
sg4
I-146
sg5
I-146
sg6
I-146
sg7
I-146
sg8
I-146
sg9
I-146
sg10
I-146
sg11
I-146
sg12
I-146
sg13
I-146
sg14
I-146
sg15
I-146
sg16
I-146
sg17
I-146
sg18
I-146
sg19
I-146
sg20
I-146
sg21
I-146
sg22
I-146
sg23
I-146
sg24
I-146
sg25
I-146
sg26
I-146
sg27
I-146
sg28
I-146
sg29
I-146
sg30
I-146
sg31
I-146
ssI21
(dp77
g19
I-67
sg20
I-67
sg68
I-67
sg21
I-67
sg22
I-67
sg23
I-67
sg24
I-67
sg25
I-67
sg26
I-67
sg27
I-67
sg28
I-67
sg29
I-67
sg30
I-67
sg31
I-67
sg57
I-67
sg58
I-67
sg39
I-67
sg40
I-67
sg41
I-67
sg42
I-67
sg36
I-67
sg45
I-67
sg46
I-67
sg47
I-67
sg48
I-67
sg49
I-67
sg50
I-67
sg51
I-67
sg52
I-67
sg53
I-67
sg54
I-67
sg55
I-67
sg56
I-67
ssI22
(dp78
g19
I-68
sg20
I-68
sg68
I-68
sg21
I-68
sg22
I-68
sg23
I-68
sg24
I-68
sg25
I-68
sg26
I-68
sg27
I-68
sg28
I-68
sg29
I-68
sg30
I-68
sg31
I-68
sg57
I-68
sg58
I-68
sg39
I-68
sg40
I-68
sg41
I-68
sg42
I-68
sg36
I-68
sg45
I-68
sg46
I-68
sg47
I-68
sg48
I-68
sg49
I-68
sg50
I-68
sg51
I-68
sg52
I-68
sg53
I-68
sg54
I-68
sg55
I-68
sg56
I-68
ssI23
(dp79
g19
I-69
sg20
I-69
sg68
I-69
sg21
I-69
sg22
I-69
sg23
I-69
sg24
I-69
sg25
I-69
sg26
I-69
sg27
I-69
sg28
I-69
sg29
I-69
sg30
I-69
sg31
I-69
sg57
I-69
sg58
I-69
sg39
I-69
sg40
I-69
sg41
I-69
sg42
I-69
sg36
I-69
sg45
I-69
sg46
I-69
sg47
I-69
sg48
I-69
sg49
I-69
sg50
I-69
sg51
I-69
sg52
I-69
sg53
I-69
sg54
I-69
sg55
I-69
sg56
I-69
ssI24
(dp80
g19
I-70
sg20
I-70
sg68
I-70
sg21
I-70
sg22
I-70
sg23
I-70
sg24
I-70
sg25
I-70
sg26
I-70
sg27
I-70
sg28
I-70
sg29
I-70
sg30
I-70
sg31
I-70
sg57
I-70
sg58
I-70
sg39
I-70
sg40
I-70
sg41
I-70
sg42
I-70
sg36
I-70
sg45
I-70
sg46
I-70
sg47
I-70
sg48
I-70
sg49
I-70
sg50
I-70
sg51
I-70
sg52
I-70
sg53
I-70
sg54
I-70
sg55
I-70
sg56
I-70
ssI25
(dp81
g19
I-71
sg20
I-71
sg68
I-71
sg21
I-71
sg22
I-71
sg23
I-71
sg24
I-71
sg25
I-71
sg26
I-71
sg27
I-71
sg28
I-71
sg29
I-71
sg30
I-71
sg31
I-71
sg57
I-71
sg58
I-71
sg39
I-71
sg40
I-71
sg41
I-71
sg42
I-71
sg36
I-71
sg45
I-71
sg46
I-71
sg47
I-71
sg48
I-71
sg49
I-71
sg50
I-71
sg51
I-71
sg52
I-71
sg53
I-71
sg54
I-71
sg55
I-71
sg56
I-71
ssI26
(dp82
g19
I-72
sg20
I-72
sg68
I-72
sg21
I-72
sg22
I-72
sg23
I-72
sg24
I-72
sg25
I-72
sg26
I-72
sg27
I-72
sg28
I-72
sg29
I-72
sg30
I-72
sg31
I-72
sg57
I-72
sg58
I-72
sg39
I-72
sg40
I-72
sg41
I-72
sg42
I-72
sg36
I-72
sg45
I-72
sg46
I-72
sg47
I-72
sg48
I-72
sg49
I-72
sg50
I-72
sg51
I-72
sg52
I-72
sg53
I-72
sg54
I-72
sg55
I-72
sg56
I-72
ssI27
(dp83
g19
I-73
sg20
I-73
sg68
I-73
sg21
I-73
sg22
I-73
sg23
I-73
sg24
I-73
sg25
I-73
sg26
I-73
sg27
I-73
sg28
I-73
sg29
I-73
sg30
I-73
sg31
I-73
sg57
I-73
sg58
I-73
sg39
I-73
sg40
I-73
sg41
I-73
sg42
I-73
sg36
I-73
sg45
I-73
sg46
I-73
sg47
I-73
sg48
I-73
sg49
I-73
sg50
I-73
sg51
I-73
sg52
I-73
sg53
I-73
sg54
I-73
sg55
I-73
sg56
I-73
ssI28
(dp84
g15
I80
sg66
I-51
sg10
I-51
sg19
I-51
sg20
I-51
sg21
I-51
sg22
I-51
sg23
I-51
sg24
I-51
sg25
I-51
sg26
I-51
sg27
I-51
sg28
I-51
sg29
I-51
sg30
I-51
sg31
I-51
sg57
I-51
sg58
I-51
sg39
I-51
sg40
I-51
sg41
I-51
sg42
I-51
sg36
I-51
sg45
I-51
sg46
I-51
sg47
I-51
sg48
I-51
sg49
I-51
sg50
I-51
sg51
I-51
sg52
I-51
sg53
I-51
sg54
I-51
sg55
I-51
sg56
I-51
sV=
p85
I81
ssI29
(dp86
g75
I-146
sg3
I-146
sg4
I-146
sg5
I-146
sg6
I-146
sg7
I-146
sg8
I-146
sg9
I-146
sg10
I-146
sg11
I-146
sg12
I-146
sg13
I-146
sg14
I-146
sg15
I-146
sg16
I-146
sg17
I-146
sg18
I-146
sg19
I-146
sg20
I-146
sg21
I-146
sg22
I-146
sg23
I-146
sg24
I-146
sg25
I-146
sg26
I-146
sg27
I-146
sg28
I-146
sg29
I-146
sg30
I-146
sg31
I-146
ssI30
(dp87
VWORD
p88
I83
ssI31
(dp89
VWORD
p90
I85
sg5
I19
sg6
I20
sg11
I35
sg12
I37
sg13
I38
sg14
I39
sg15
I29
sg16
I36
sg17
I40
sg18
I41
sg10
I34
sg19
I42
sg20
I43
sg21
I44
sg22
I45
sg23
I46
sg24
I47
sg25
I48
sg26
I49
sg27
I50
sg28
I51
sg29
I52
sg30
I53
sg31
I54
ssI32
(dp91
g66
I-52
sg10
I-52
sg19
I-52
sg20
I-52
sg21
I-52
sg22
I-52
sg23
I-52
sg24
I-52
sg25
I-52
sg26
I-52
sg27
I-52
sg28
I-52
sg29
I-52
sg30
I-52
sg31
I-52
sg57
I-52
sg58
I-52
sg39
I-52
sg40
I-52
sg41
I-52
sg42
I-52
sg36
I-52
sg45
I-52
sg46
I-52
sg47
I-52
sg48
I-52
sg49
I-52
sg50
I-52
sg51
I-52
sg52
I-52
sg53
I-52
sg54
I-52
sg55
I-52
sg56
I-52
ssI33
(dp92
g66
I-53
sg10
I-53
sg19
I-53
sg20
I-53
sg21
I-53
sg22
I-53
sg23
I-53
sg24
I-53
sg25
I-53
sg26
I-53
sg27
I-53
sg28
I-53
sg29
I-53
sg30
I-53
sg31
I-53
sg57
I-53
sg58
I-53
sg39
I-53
sg40
I-53
sg41
I-53
sg42
I-53
sg36
I-53
sg45
I-53
sg46
I-53
sg47
I-53
sg48
I-53
sg49
I-53
sg50
I-53
sg51
I-53
sg52
I-53
sg53
I-53
sg54
I-53
sg55
I-53
sg56
I-53
ssI34
(dp93
g66
I-174
sg10
I-174
sg19
I87
sg20
I88
sg21
I-174
sg22
I89
sg23
I90
sg24
I91
sg25
I92
sg26
I93
sg27
I94
sg28
I95
sg29
I96
sg30
I-174
sg31
I-174
sg57
I-174
sg58
I-174
sg39
I-174
sg40
I-174
sg41
I-174
sg42
I-174
sg36
I-174
sg45
I-174
sg46
I-174
sg47
I-174
sg48
I-174
sg49
I-174
sg50
I-174
sg51
I-174
sg52
I-174
sg53
I-174
sg54
I-174
sg55
I-174
sg56
I-174
ssI35
(dp94
VWORD
p95
I97
sVARITH_FOR_EXPRS
p96
I98
ssI36
(dp97
g75
I-146
sg3
I-146
sg4
I-146
sg5
I-146
sg6
I-146
sg7
I-146
sg8
I-146
sg9
I-146
sg10
I-146
sg11
I-146
sg12
I-146
sg13
I-146
sg14
I-146
sg15
I-146
sg16
I-146
sg17
I-146
sg18
I-146
sg19
I-146
sg20
I-146
sg21
I-146
sg22
I-146
sg23
I-146
sg24
I-146
sg25
I-146
sg26
I-146
sg27
I-146
sg28
I-146
sg29
I-146
sg30
I-146
sg31
I-146
ssI37
(dp98
VWORD
p99
I100
ssI38
(dp100
VWORD
p101
I101
ssI39
(dp102
g75
I-146
sg3
I-146
sg4
I-146
sg5
I-146
sg6
I-146
sg7
I-146
sg8
I-146
sg9
I-146
sg10
I-146
sg11
I-146
sg12
I-146
sg13
I-146
sg14
I-146
sg15
I-146
sg16
I-146
sg17
I-146
sg18
I-146
sg19
I-146
sg20
I-146
sg21
I-146
sg22
I-146
sg23
I-146
sg24
I-146
sg25
I-146
sg26
I-146
sg27
I-146
sg28
I-146
sg29
I-146
sg30
I-146
sg31
I-146
ssI40
(dp103
g19
I-112
sg20
I-112
sg68
I-112
sg21
I-112
sg22
I-112
sg23
I-112
sg24
I-112
sg25
I-112
sg26
I-112
sg27
I-112
sg28
I-112
sg29
I-112
sg30
I-112
sg31
I-112
sg57
I-112
sg58
I-112
sg39
I-112
sg40
I-112
sg41
I-112
sg42
I-112
sg36
I-112
sg45
I-112
sg46
I-112
sg47
I-112
sg48
I-112
sg49
I-112
sg50
I-112
sg51
I-112
sg52
I-112
sg53
I-112
sg54
I-112
sg55
I-112
sg56
I-112
ssI41
(dp104
VCOND_CMD
p105
I103
ssI42
(dp106
VWORD
p107
I104
ssI43
(dp108
VWORD
p109
I105
ssI44
(dp110
g19
I106
sg20
I107
sVGREATER_GREATER
p111
I108
sVGREATER_BAR
p112
I109
sVLESS_GREATER
p113
I110
sVLESS_LESS
p114
I111
sVLESS_LESS_MINUS
p115
I112
sVLESS_LESS_LESS
p116
I113
sVLESS_AND
p117
I114
sVGREATER_AND
p118
I115
ssI45
(dp119
VWORD
p120
I116
ssI46
(dp121
VWORD
p122
I117
ssI47
(dp123
VWORD
p124
I118
ssI48
(dp125
VWORD
p126
I119
ssI49
(dp127
VWORD
p128
I120
ssI50
(dp129
VWORD
p130
I121
ssI51
(dp131
VNUMBER
p132
I122
sVWORD
p133
I123
sV-
p134
I124
ssI52
(dp135
VNUMBER
p136
I125
sVWORD
p137
I126
sg134
I127
ssI53
(dp138
VWORD
p139
I128
ssI54
(dp140
VWORD
p141
I129
ssI55
(dp142
g2
I-2
sg3
I-2
sg4
I-2
sg5
I-2
sg6
I-2
sg7
I-2
sg8
I-2
sg9
I-2
sg10
I-2
sg11
I-2
sg12
I-2
sg13
I-2
sg14
I-2
sg15
I-2
sg16
I-2
sg17
I-2
sg18
I-2
sg19
I-2
sg20
I-2
sg21
I-2
sg22
I-2
sg23
I-2
sg24
I-2
sg25
I-2
sg26
I-2
sg27
I-2
sg28
I-2
sg29
I-2
sg30
I-2
sg31
I-2
sg33
I-2
ssI56
(dp143
g2
I-3
sg3
I-3
sg4
I-3
sg5
I-3
sg6
I-3
sg7
I-3
sg8
I-3
sg9
I-3
sg10
I-3
sg11
I-3
sg12
I-3
sg13
I-3
sg14
I-3
sg15
I-3
sg16
I-3
sg17
I-3
sg18
I-3
sg19
I-3
sg20
I-3
sg21
I-3
sg22
I-3
sg23
I-3
sg24
I-3
sg25
I-3
sg26
I-3
sg27
I-3
sg28
I-3
sg29
I-3
sg30
I-3
sg31
I-3
sg33
I-3
ssI57
(dp144
g2
I-143
sg3
I-143
sg4
I-143
sg5
I-143
sg6
I-143
sg7
I-143
sg8
I-143
sg9
I-143
sg10
I-143
sg11
I-143
sg12
I-143
sg13
I-143
sg14
I-143
sg15
I-143
sg16
I-143
sg17
I-143
sg18
I-143
sg19
I-143
sg20
I-143
sg21
I-143
sg22
I-143
sg23
I-143
sg24
I-143
sg25
I-143
sg26
I-143
sg27
I-143
sg28
I-143
sg29
I-143
sg30
I-143
sg31
I-143
sg33
I-143
ssI58
(dp145
g36
I-149
sg3
I8
sg4
I11
sg5
I19
sg6
I20
sg7
I28
sg8
I30
sg9
I31
sg10
I34
sg11
I35
sg12
I37
sg13
I38
sg14
I39
sg15
I29
sg16
I36
sg17
I40
sg18
I41
sg19
I42
sg20
I43
sg21
I44
sg22
I45
sg23
I46
sg24
I47
sg25
I48
sg26
I49
sg27
I50
sg28
I51
sg29
I52
sg30
I53
sg31
I54
ssI59
(dp146
g36
I-150
sg3
I8
sg4
I11
sg5
I19
sg6
I20
sg7
I28
sg8
I30
sg9
I31
sg10
I34
sg11
I35
sg12
I37
sg13
I38
sg14
I39
sg15
I29
sg16
I36
sg17
I40
sg18
I41
sg19
I42
sg20
I43
sg21
I44
sg22
I45
sg23
I46
sg24
I47
sg25
I48
sg26
I49
sg27
I50
sg28
I51
sg29
I52
sg30
I53
sg31
I54
ssI60
(dp147
g75
I-146
sg3
I-146
sg4
I-146
sg5
I-146
sg6
I-146
sg7
I-146
sg8
I-146
sg9
I-146
sg10
I-146
sg11
I-146
sg12
I-146
sg13
I-146
sg14
I-146
sg15
I-146
sg16
I-146
sg17
I-146
sg18
I-146
sg19
I-146
sg20
I-146
sg21
I-146
sg22
I-146
sg23
I-146
sg24
I-146
sg25
I-146
sg26
I-146
sg27
I-146
sg28
I-146
sg29
I-146
sg30
I-146
sg31
I-146
ssI61
(dp148
g75
I-146
sg3
I-146
sg4
I-146
sg5
I-146
sg6
I-146
sg7
I-146
sg8
I-146
sg9
I-146
sg10
I-146
sg11
I-146
sg12
I-146
sg13
I-146
sg14
I-146
sg15
I-146
sg16
I-146
sg17
I-146
sg18
I-146
sg19
I-146
sg20
I-146
sg21
I-146
sg22
I-146
sg23
I-146
sg24
I-146
sg25
I-146
sg26
I-146
sg27
I-146
sg28
I-146
sg29
I-146
sg30
I-146
sg31
I-146
ssI62
(dp149
g75
I-146
sg5
I-146
sg6
I-146
sg7
I-146
sg8
I-146
sg9
I-146
sg10
I-146
sg11
I-146
sg12
I-146
sg13
I-146
sg14
I-146
sg15
I-146
sg16
I-146
sg17
I-146
sg18
I-146
sg19
I-146
sg20
I-146
sg21
I-146
sg22
I-146
sg23
I-146
sg24
I-146
sg25
I-146
sg26
I-146
sg27
I-146
sg28
I-146
sg29
I-146
sg30
I-146
sg31
I-146
ssI63
(dp150
g75
I-146
sg5
I-146
sg6
I-146
sg7
I-146
sg8
I-146
sg9
I-146
sg10
I-146
sg11
I-146
sg12
I-146
sg13
I-146
sg14
I-146
sg15
I-146
sg16
I-146
sg17
I-146
sg18
I-146
sg19
I-146
sg20
I-146
sg21
I-146
sg22
I-146
sg23
I-146
sg24
I-146
sg25
I-146
sg26
I-146
sg27
I-146
sg28
I-146
sg29
I-146
sg30
I-146
sg31
I-146
ssI64
(dp151
g39
I-157
sg40
I-157
sg41
I-157
sg42
I-157
sg36
I-157
sg45
I-157
sg46
I-157
sg47
I-157
sg48
I-157
sg49
I-157
sg50
I-157
sg51
I-157
sg52
I-157
sg53
I-157
sg54
I-157
sg55
I-157
sg56
I-157
ssI65
(dp152
g39
I-160
sg40
I-160
sg41
I-160
sg42
I-160
sg36
I-160
sg45
I-160
sg46
I-160
sg47
I-160
sg48
I-160
sg49
I-160
sg50
I-160
sg51
I-160
sg52
I-160
sg53
I-160
sg54
I-160
sg55
I-160
sg56
I-160
ssI66
(dp153
g39
I-144
sg40
I-144
sg41
I-144
sg42
I-144
sg36
I-144
sg45
I-144
sg46
I-144
sg47
I-144
sg48
I-144
sg49
I-144
sg50
I-144
sg51
I-144
sg52
I-144
sg53
I-144
sg54
I-144
sg55
I-144
sg56
I-144
sVLBRACE
p154
I-144
ssI67
(dp155
g39
I-145
sg40
I-145
sg41
I-145
sg42
I-145
sg36
I-145
sg45
I-145
sg46
I-145
sg47
I-145
sg48
I-145
sg49
I-145
sg50
I-145
sg51
I-145
sg52
I-145
sg53
I-145
sg54
I-145
sg55
I-145
sg56
I-145
sg154
I-145
ssI68
(dp156
g39
I-158
sg40
I-158
sg41
I-158
sg42
I-158
sg36
I-158
sg45
I-158
sg46
I-158
sg47
I-158
sg48
I-158
sg49
I-158
sg50
I-158
sg51
I-158
sg52
I-158
sg53
I-158
sg54
I-158
sg55
I-158
sg56
I-158
ssI69
(dp157
g39
I-159
sg40
I-159
sg41
I-159
sg42
I-159
sg36
I-159
sg45
I-159
sg46
I-159
sg47
I-159
sg48
I-159
sg49
I-159
sg50
I-159
sg51
I-159
sg52
I-159
sg53
I-159
sg54
I-159
sg55
I-159
sg56
I-159
ssI70
(dp158
g3
I-165
sg60
I-165
sg40
I-165
sg4
I-165
sg5
I-165
sg6
I-165
sg7
I-165
sg8
I-165
sg9
I-165
sg10
I-165
sg11
I-165
sg12
I-165
sg13
I-165
sg14
I-165
sg15
I-165
sg16
I-165
sg17
I-165
sg18
I-165
sg19
I-165
sg20
I-165
sg21
I-165
sg22
I-165
sg23
I-165
sg24
I-165
sg25
I-165
sg26
I-165
sg27
I-165
sg28
I-165
sg29
I-165
sg30
I-165
sg31
I-165
sVTIMEIGN
p159
I136
ssI71
(dp160
g57
I-58
sg58
I-58
sg39
I-58
sg40
I-58
sg41
I-58
sg42
I-58
sg36
I-58
sg45
I-58
sg46
I-58
sg47
I-58
sg48
I-58
sg49
I-58
sg50
I-58
sg51
I-58
sg52
I-58
sg53
I-58
sg54
I-58
sg55
I-58
sg56
I-58
ssI72
(dp161
g66
I138
sg10
I34
sg19
I42
sg20
I43
sg21
I44
sg22
I45
sg23
I46
sg24
I47
sg25
I48
sg26
I49
sg27
I50
sg28
I51
sg29
I52
sg30
I53
sg31
I54
ssI73
(dp162
g57
I-60
sg58
I-60
sg39
I-60
sg40
I-60
sg41
I-60
sg42
I-60
sg36
I-60
sg45
I-60
sg46
I-60
sg47
I-60
sg48
I-60
sg49
I-60
sg50
I-60
sg51
I-60
sg52
I-60
sg53
I-60
sg54
I-60
sg55
I-60
sg56
I-60
sg19
I42
sg20
I43
sg68
I75
sg21
I44
sg22
I45
sg23
I46
sg24
I47
sg25
I48
sg26
I49
sg27
I50
sg28
I51
sg29
I52
sg30
I53
sg31
I54
ssI74
(dp163
g19
I-54
sg20
I-54
sg68
I-54
sg21
I-54
sg22
I-54
sg23
I-54
sg24
I-54
sg25
I-54
sg26
I-54
sg27
I-54
sg28
I-54
sg29
I-54
sg30
I-54
sg31
I-54
sg57
I-54
sg58
I-54
sg39
I-54
sg40
I-54
sg41
I-54
sg42
I-54
sg36
I-54
sg45
I-54
sg46
I-54
sg47
I-54
sg48
I-54
sg49
I-54
sg50
I-54
sg51
I-54
sg52
I-54
sg53
I-54
sg54
I-54
sg55
I-54
sg56
I-54
ssI75
(dp164
g19
I87
sg20
I88
sVGREATER_GREATER
p165
I89
sVGREATER_BAR
p166
I90
sVLESS_GREATER
p167
I91
sVLESS_LESS
p168
I92
sVLESS_LESS_MINUS
p169
I93
sVLESS_LESS_LESS
p170
I94
sVLESS_AND
p171
I95
sVGREATER_AND
p172
I96
ssI76
(dp173
g45
I140
ssI77
(dp174
g45
I-132
sg46
I-132
sg47
I-132
sg48
I-132
sg49
I-132
sg50
I-132
sg51
I-132
sg52
I-132
sg53
I-132
sg54
I-132
sg55
I-132
sg56
I-132
ssI78
(dp175
g75
I143
sg3
I8
sg4
I11
sg5
I19
sg6
I20
sg7
I28
sg8
I30
sg9
I31
sg10
I34
sg11
I35
sg12
I37
sg13
I38
sg14
I39
sg15
I29
sg16
I36
sg17
I40
sg18
I41
sg19
I42
sg20
I43
sg21
I44
sg22
I45
sg23
I46
sg24
I47
sg25
I48
sg26
I49
sg27
I50
sg28
I51
sg29
I52
sg30
I53
sg31
I54
ssI79
(dp176
VDO
p177
I145
ssI80
(dp178
g46
I146
ssI81
(dp179
VNUMBER
p180
I148
sg15
I-172
sVWORD
p181
I-172
ssI82
(dp182
g46
I149
ssI83
(dp183
g15
I150
sg75
I-146
sg5
I-146
sg6
I-146
sg11
I-146
sg12
I-146
sg13
I-146
sg14
I-146
sg16
I-146
sg17
I-146
sg18
I-146
ssI84
(dp184
g57
I-103
sg58
I-103
sg39
I-103
sg40
I-103
sg41
I-103
sg42
I-103
sg36
I-103
sg45
I-103
sg46
I-103
sg47
I-103
sg48
I-103
sg49
I-103
sg50
I-103
sg51
I-103
sg52
I-103
sg53
I-103
sg54
I-103
sg55
I-103
sg56
I-103
sg19
I42
sg20
I43
sg68
I75
sg21
I44
sg22
I45
sg23
I46
sg24
I47
sg25
I48
sg26
I49
sg27
I50
sg28
I51
sg29
I52
sg30
I53
sg31
I54
ssI85
(dp185
g66
I-51
sg10
I-51
sg19
I-51
sg20
I-51
sg21
I-51
sg22
I-51
sg23
I-51
sg24
I-51
sg25
I-51
sg26
I-51
sg27
I-51
sg28
I-51
sg29
I-51
sg30
I-51
sg31
I-51
sg57
I-51
sg58
I-51
sg39
I-51
sg40
I-51
sg41
I-51
sg42
I-51
sg36
I-51
sg45
I-51
sg46
I-51
sg47
I-51
sg48
I-51
sg49
I-51
sg50
I-51
sg51
I-51
sg52
I-51
sg53
I-51
sg54
I-51
sg55
I-51
sg56
I-51
sg85
I81
sg5
I19
sg6
I20
sg11
I35
sg12
I37
sg13
I38
sg14
I39
sg15
I29
sg16
I36
sg17
I40
sg18
I41
ssI86
(dp186
g57
I-107
sg58
I-107
sg39
I-107
sg40
I-107
sg41
I-107
sg42
I-107
sg36
I-107
sg45
I-107
sg46
I-107
sg47
I-107
sg48
I-107
sg49
I-107
sg50
I-107
sg51
I-107
sg52
I-107
sg53
I-107
sg54
I-107
sg55
I-107
sg56
I-107
sg66
I-175
sg10
I-175
sg19
I-175
sg20
I-175
sg21
I-175
sg22
I-175
sg23
I-175
sg24
I-175
sg25
I-175
sg26
I-175
sg27
I-175
sg28
I-175
sg29
I-175
sg30
I-175
sg31
I-175
ssI87
(dp187
VWORD
p188
I154
ssI88
(dp189
VWORD
p190
I155
ssI89
(dp191
VWORD
p192
I156
ssI90
(dp193
VWORD
p194
I157
ssI91
(dp195
VWORD
p196
I158
ssI92
(dp197
VWORD
p198
I159
ssI93
(dp199
VWORD
p200
I160
ssI94
(dp201
VWORD
p202
I161
ssI95
(dp203
VNUMBER
p204
I162
sVWORD
p205
I163
sg134
I164
ssI96
(dp206
VNUMBER
p207
I165
sVWORD
p208
I166
sg134
I167
ssI97
(dp209
g40
I169
sVDO
p210
I-146
sVLBRACE
p211
I-146
sVIN
p212
I-146
sg75
I-146
ssI98
(dp213
VDO
p214
I171
sVLBRACE
p215
I172
sg60
I66
sg40
I67
ssI99
(dp216
g47
I173
ssI100
(dp217
VIN
p218
I-146
sg75
I-146
ssI101
(dp219
g40
I176
sVDO
p220
I-146
sVLBRACE
p221
I-146
sVIN
p222
I-146
sg75
I-146
ssI102
(dp223
g48
I177
ssI103
(dp224
VCOND_END
p225
I178
ssI104
(dp226
g66
I-7
sg10
I-7
sg19
I-7
sg20
I-7
sg21
I-7
sg22
I-7
sg23
I-7
sg24
I-7
sg25
I-7
sg26
I-7
sg27
I-7
sg28
I-7
sg29
I-7
sg30
I-7
sg31
I-7
sg57
I-7
sg58
I-7
sg39
I-7
sg40
I-7
sg41
I-7
sg42
I-7
sg36
I-7
sg45
I-7
sg46
I-7
sg47
I-7
sg48
I-7
sg49
I-7
sg50
I-7
sg51
I-7
sg52
I-7
sg53
I-7
sg54
I-7
sg55
I-7
sg56
I-7
ssI105
(dp227
g66
I-8
sg10
I-8
sg19
I-8
sg20
I-8
sg21
I-8
sg22
I-8
sg23
I-8
sg24
I-8
sg25
I-8
sg26
I-8
sg27
I-8
sg28
I-8
sg29
I-8
sg30
I-8
sg31
I-8
sg57
I-8
sg58
I-8
sg39
I-8
sg40
I-8
sg41
I-8
sg42
I-8
sg36
I-8
sg45
I-8
sg46
I-8
sg47
I-8
sg48
I-8
sg49
I-8
sg50
I-8
sg51
I-8
sg52
I-8
sg53
I-8
sg54
I-8
sg55
I-8
sg56
I-8
ssI106
(dp228
VWORD
p229
I179
ssI107
(dp230
VWORD
p231
I180
ssI108
(dp232
VWORD
p233
I181
ssI109
(dp234
VWORD
p235
I182
ssI110
(dp236
VWORD
p237
I183
ssI111
(dp238
VWORD
p239
I184
ssI112
(dp240
VWORD
p241
I185
ssI113
(dp242
VWORD
p243
I186
ssI114
(dp244
VNUMBER
p245
I187
sVWORD
p246
I188
sg134
I189
ssI115
(dp247
VNUMBER
p248
I190
sVWORD
p249
I191
sg134
I192
ssI116
(dp250
g66
I-13
sg10
I-13
sg19
I-13
sg20
I-13
sg21
I-13
sg22
I-13
sg23
I-13
sg24
I-13
sg25
I-13
sg26
I-13
sg27
I-13
sg28
I-13
sg29
I-13
sg30
I-13
sg31
I-13
sg57
I-13
sg58
I-13
sg39
I-13
sg40
I-13
sg41
I-13
sg42
I-13
sg36
I-13
sg45
I-13
sg46
I-13
sg47
I-13
sg48
I-13
sg49
I-13
sg50
I-13
sg51
I-13
sg52
I-13
sg53
I-13
sg54
I-13
sg55
I-13
sg56
I-13
ssI117
(dp251
g66
I-16
sg10
I-16
sg19
I-16
sg20
I-16
sg21
I-16
sg22
I-16
sg23
I-16
sg24
I-16
sg25
I-16
sg26
I-16
sg27
I-16
sg28
I-16
sg29
I-16
sg30
I-16
sg31
I-16
sg57
I-16
sg58
I-16
sg39
I-16
sg40
I-16
sg41
I-16
sg42
I-16
sg36
I-16
sg45
I-16
sg46
I-16
sg47
I-16
sg48
I-16
sg49
I-16
sg50
I-16
sg51
I-16
sg52
I-16
sg53
I-16
sg54
I-16
sg55
I-16
sg56
I-16
ssI118
(dp252
g66
I-19
sg10
I-19
sg19
I-19
sg20
I-19
sg21
I-19
sg22
I-19
sg23
I-19
sg24
I-19
sg25
I-19
sg26
I-19
sg27
I-19
sg28
I-19
sg29
I-19
sg30
I-19
sg31
I-19
sg57
I-19
sg58
I-19
sg39
I-19
sg40
I-19
sg41
I-19
sg42
I-19
sg36
I-19
sg45
I-19
sg46
I-19
sg47
I-19
sg48
I-19
sg49
I-19
sg50
I-19
sg51
I-19
sg52
I-19
sg53
I-19
sg54
I-19
sg55
I-19
sg56
I-19
ssI119
(dp253
g66
I-22
sg10
I-22
sg19
I-22
sg20
I-22
sg21
I-22
sg22
I-22
sg23
I-22
sg24
I-22
sg25
I-22
sg26
I-22
sg27
I-22
sg28
I-22
sg29
I-22
sg30
I-22
sg31
I-22
sg57
I-22
sg58
I-22
sg39
I-22
sg40
I-22
sg41
I-22
sg42
I-22
sg36
I-22
sg45
I-22
sg46
I-22
sg47
I-22
sg48
I-22
sg49
I-22
sg50
I-22
sg51
I-22
sg52
I-22
sg53
I-22
sg54
I-22
sg55
I-22
sg56
I-22
ssI120
(dp254
g66
I-25
sg10
I-25
sg19
I-25
sg20
I-25
sg21
I-25
sg22
I-25
sg23
I-25
sg24
I-25
sg25
I-25
sg26
I-25
sg27
I-25
sg28
I-25
sg29
I-25
sg30
I-25
sg31
I-25
sg57
I-25
sg58
I-25
sg39
I-25
sg40
I-25
sg41
I-25
sg42
I-25
sg36
I-25
sg45
I-25
sg46
I-25
sg47
I-25
sg48
I-25
sg49
I-25
sg50
I-25
sg51
I-25
sg52
I-25
sg53
I-25
sg54
I-25
sg55
I-25
sg56
I-25
ssI121
(dp255
g66
I-28
sg10
I-28
sg19
I-28
sg20
I-28
sg21
I-28
sg22
I-28
sg23
I-28
sg24
I-28
sg25
I-28
sg26
I-28
sg27
I-28
sg28
I-28
sg29
I-28
sg30
I-28
sg31
I-28
sg57
I-28
sg58
I-28
sg39
I-28
sg40
I-28
sg41
I-28
sg42
I-28
sg36
I-28
sg45
I-28
sg46
I-28
sg47
I-28
sg48
I-28
sg49
I-28
sg50
I-28
sg51
I-28
sg52
I-28
sg53
I-28
sg54
I-28
sg55
I-28
sg56
I-28
ssI122
(dp256
g66
I-31
sg10
I-31
sg19
I-31
sg20
I-31
sg21
I-31
sg22
I-31
sg23
I-31
sg24
I-31
sg25
I-31
sg26
I-31
sg27
I-31
sg28
I-31
sg29
I-31
sg30
I-31
sg31
I-31
sg57
I-31
sg58
I-31
sg39
I-31
sg40
I-31
sg41
I-31
sg42
I-31
sg36
I-31
sg45
I-31
sg46
I-31
sg47
I-31
sg48
I-31
sg49
I-31
sg50
I-31
sg51
I-31
sg52
I-31
sg53
I-31
sg54
I-31
sg55
I-31
sg56
I-31
ssI123
(dp257
g66
I-37
sg10
I-37
sg19
I-37
sg20
I-37
sg21
I-37
sg22
I-37
sg23
I-37
sg24
I-37
sg25
I-37
sg26
I-37
sg27
I-37
sg28
I-37
sg29
I-37
sg30
I-37
sg31
I-37
sg57
I-37
sg58
I-37
sg39
I-37
sg40
I-37
sg41
I-37
sg42
I-37
sg36
I-37
sg45
I-37
sg46
I-37
sg47
I-37
sg48
I-37
sg49
I-37
sg50
I-37
sg51
I-37
sg52
I-37
sg53
I-37
sg54
I-37
sg55
I-37
sg56
I-37
ssI124
(dp258
g66
I-46
sg10
I-46
sg19
I-46
sg20
I-46
sg21
I-46
sg22
I-46
sg23
I-46
sg24
I-46
sg25
I-46
sg26
I-46
sg27
I-46
sg28
I-46
sg29
I-46
sg30
I-46
sg31
I-46
sg57
I-46
sg58
I-46
sg39
I-46
sg40
I-46
sg41
I-46
sg42
I-46
sg36
I-46
sg45
I-46
sg46
I-46
sg47
I-46
sg48
I-46
sg49
I-46
sg50
I-46
sg51
I-46
sg52
I-46
sg53
I-46
sg54
I-46
sg55
I-46
sg56
I-46
ssI125
(dp259
g66
I-34
sg10
I-34
sg19
I-34
sg20
I-34
sg21
I-34
sg22
I-34
sg23
I-34
sg24
I-34
sg25
I-34
sg26
I-34
sg27
I-34
sg28
I-34
sg29
I-34
sg30
I-34
sg31
I-34
sg57
I-34
sg58
I-34
sg39
I-34
sg40
I-34
sg41
I-34
sg42
I-34
sg36
I-34
sg45
I-34
sg46
I-34
sg47
I-34
sg48
I-34
sg49
I-34
sg50
I-34
sg51
I-34
sg52
I-34
sg53
I-34
sg54
I-34
sg55
I-34
sg56
I-34
ssI126
(dp260
g66
I-40
sg10
I-40
sg19
I-40
sg20
I-40
sg21
I-40
sg22
I-40
sg23
I-40
sg24
I-40
sg25
I-40
sg26
I-40
sg27
I-40
sg28
I-40
sg29
I-40
sg30
I-40
sg31
I-40
sg57
I-40
sg58
I-40
sg39
I-40
sg40
I-40
sg41
I-40
sg42
I-40
sg36
I-40
sg45
I-40
sg46
I-40
sg47
I-40
sg48
I-40
sg49
I-40
sg50
I-40
sg51
I-40
sg52
I-40
sg53
I-40
sg54
I-40
sg55
I-40
sg56
I-40
ssI127
(dp261
g66
I-43
sg10
I-43
sg19
I-43
sg20
I-43
sg21
I-43
sg22
I-43
sg23
I-43
sg24
I-43
sg25
I-43
sg26
I-43
sg27
I-43
sg28
I-43
sg29
I-43
sg30
I-43
sg31
I-43
sg57
I-43
sg58
I-43
sg39
I-43
sg40
I-43
sg41
I-43
sg42
I-43
sg36
I-43
sg45
I-43
sg46
I-43
sg47
I-43
sg48
I-43
sg49
I-43
sg50
I-43
sg51
I-43
sg52
I-43
sg53
I-43
sg54
I-43
sg55
I-43
sg56
I-43
ssI128
(dp262
g66
I-49
sg10
I-49
sg19
I-49
sg20
I-49
sg21
I-49
sg22
I-49
sg23
I-49
sg24
I-49
sg25
I-49
sg26
I-49
sg27
I-49
sg28
I-49
sg29
I-49
sg30
I-49
sg31
I-49
sg57
I-49
sg58
I-49
sg39
I-49
sg40
I-49
sg41
I-49
sg42
I-49
sg36
I-49
sg45
I-49
sg46
I-49
sg47
I-49
sg48
I-49
sg49
I-49
sg50
I-49
sg51
I-49
sg52
I-49
sg53
I-49
sg54
I-49
sg55
I-49
sg56
I-49
ssI129
(dp263
g66
I-50
sg10
I-50
sg19
I-50
sg20
I-50
sg21
I-50
sg22
I-50
sg23
I-50
sg24
I-50
sg25
I-50
sg26
I-50
sg27
I-50
sg28
I-50
sg29
I-50
sg30
I-50
sg31
I-50
sg57
I-50
sg58
I-50
sg39
I-50
sg40
I-50
sg41
I-50
sg42
I-50
sg36
I-50
sg45
I-50
sg46
I-50
sg47
I-50
sg48
I-50
sg49
I-50
sg50
I-50
sg51
I-50
sg52
I-50
sg53
I-50
sg54
I-50
sg55
I-50
sg56
I-50
ssI130
(dp264
g39
I-153
sg40
I-153
sg41
I60
sg42
I61
sg36
I-153
ssI131
(dp265
g39
I-154
sg40
I-154
sg41
I60
sg42
I61
sg36
I-154
ssI132
(dp266
g75
I143
sg3
I8
sg4
I11
sg5
I19
sg6
I20
sg7
I28
sg8
I30
sg9
I31
sg10
I34
sg11
I35
sg12
I37
sg13
I38
sg14
I39
sg15
I29
sg16
I36
sg17
I40
sg18
I41
sg19
I42
sg20
I43
sg21
I44
sg22
I45
sg23
I46
sg24
I47
sg25
I48
sg26
I49
sg27
I50
sg28
I51
sg29
I52
sg30
I53
sg31
I54
ssI133
(dp267
g75
I143
sg3
I8
sg4
I11
sg5
I19
sg6
I20
sg7
I28
sg8
I30
sg9
I31
sg10
I34
sg11
I35
sg12
I37
sg13
I38
sg14
I39
sg15
I29
sg16
I36
sg17
I40
sg18
I41
sg19
I42
sg20
I43
sg21
I44
sg22
I45
sg23
I46
sg24
I47
sg25
I48
sg26
I49
sg27
I50
sg28
I51
sg29
I52
sg30
I53
sg31
I54
ssI134
(dp268
g75
I143
sg5
I19
sg6
I20
sg7
I28
sg8
I30
sg9
I31
sg10
I34
sg11
I35
sg12
I37
sg13
I38
sg14
I39
sg15
I29
sg16
I36
sg17
I40
sg18
I41
sg19
I42
sg20
I43
sg21
I44
sg22
I45
sg23
I46
sg24
I47
sg25
I48
sg26
I49
sg27
I50
sg28
I51
sg29
I52
sg30
I53
sg31
I54
ssI135
(dp269
g75
I143
sg5
I19
sg6
I20
sg7
I28
sg8
I30
sg9
I31
sg10
I34
sg11
I35
sg12
I37
sg13
I38
sg14
I39
sg15
I29
sg16
I36
sg17
I40
sg18
I41
sg19
I42
sg20
I43
sg21
I44
sg22
I45
sg23
I46
sg24
I47
sg25
I48
sg26
I49
sg27
I50
sg28
I51
sg29
I52
sg30
I53
sg31
I54
ssI136
(dp270
g3
I-166
sg60
I-166
sg40
I-166
sg4
I-166
sg5
I-166
sg6
I-166
sg7
I-166
sg8
I-166
sg9
I-166
sg10
I-166
sg11
I-166
sg12
I-166
sg13
I-166
sg14
I-166
sg15
I-166
sg16
I-166
sg17
I-166
sg18
I-166
sg19
I-166
sg20
I-166
sg21
I-166
sg22
I-166
sg23
I-166
sg24
I-166
sg25
I-166
sg26
I-166
sg27
I-166
sg28
I-166
sg29
I-166
sg30
I-166
sg31
I-166
ssI137
(dp271
g66
I-57
sg10
I-57
sg19
I-57
sg20
I-57
sg21
I-57
sg22
I-57
sg23
I-57
sg24
I-57
sg25
I-57
sg26
I-57
sg27
I-57
sg28
I-57
sg29
I-57
sg30
I-57
sg31
I-57
sg57
I-57
sg58
I-57
sg39
I-57
sg40
I-57
sg41
I-57
sg42
I-57
sg36
I-57
sg45
I-57
sg46
I-57
sg47
I-57
sg48
I-57
sg49
I-57
sg50
I-57
sg51
I-57
sg52
I-57
sg53
I-57
sg54
I-57
sg55
I-57
sg56
I-57
ssI138
(dp272
g66
I-51
sg10
I-51
sg19
I-51
sg20
I-51
sg21
I-51
sg22
I-51
sg23
I-51
sg24
I-51
sg25
I-51
sg26
I-51
sg27
I-51
sg28
I-51
sg29
I-51
sg30
I-51
sg31
I-51
sg57
I-51
sg58
I-51
sg39
I-51
sg40
I-51
sg41
I-51
sg42
I-51
sg36
I-51
sg45
I-51
sg46
I-51
sg47
I-51
sg48
I-51
sg49
I-51
sg50
I-51
sg51
I-51
sg52
I-51
sg53
I-51
sg54
I-51
sg55
I-51
sg56
I-51
sg85
I81
ssI139
(dp273
g19
I-55
sg20
I-55
sg68
I-55
sg21
I-55
sg22
I-55
sg23
I-55
sg24
I-55
sg25
I-55
sg26
I-55
sg27
I-55
sg28
I-55
sg29
I-55
sg30
I-55
sg31
I-55
sg57
I-55
sg58
I-55
sg39
I-55
sg40
I-55
sg41
I-55
sg42
I-55
sg36
I-55
sg45
I-55
sg46
I-55
sg47
I-55
sg48
I-55
sg49
I-55
sg50
I-55
sg51
I-55
sg52
I-55
sg53
I-55
sg54
I-55
sg55
I-55
sg56
I-55
ssI140
(dp274
g75
I-146
sg3
I-146
sg4
I-146
sg5
I-146
sg6
I-146
sg7
I-146
sg8
I-146
sg9
I-146
sg10
I-146
sg11
I-146
sg12
I-146
sg13
I-146
sg14
I-146
sg15
I-146
sg16
I-146
sg17
I-146
sg18
I-146
sg19
I-146
sg20
I-146
sg21
I-146
sg22
I-146
sg23
I-146
sg24
I-146
sg25
I-146
sg26
I-146
sg27
I-146
sg28
I-146
sg29
I-146
sg30
I-146
sg31
I-146
ssI141
(dp275
g45
I-133
sg46
I-133
sg47
I-133
sg48
I-133
sg49
I-133
sg50
I-133
sg51
I-133
sg52
I-133
sg53
I-133
sg54
I-133
sg55
I-133
sg56
I-133
sVAND_AND
p276
I200
sVOR_OR
p277
I201
sg39
I202
sg40
I203
sVNEWLINE
p278
I204
ssI142
(dp279
g45
I-131
sg46
I-131
sg47
I-131
sg48
I-131
sg49
I-131
sg50
I-131
sg51
I-131
sg52
I-131
sg53
I-131
sg54
I-131
sg55
I-131
sg56
I-131
ssI143
(dp280
g75
I-147
sg3
I-147
sg4
I-147
sg5
I-147
sg6
I-147
sg7
I-147
sg8
I-147
sg9
I-147
sg10
I-147
sg11
I-147
sg12
I-147
sg13
I-147
sg14
I-147
sg15
I-147
sg16
I-147
sg17
I-147
sg18
I-147
sg19
I-147
sg20
I-147
sg21
I-147
sg22
I-147
sg23
I-147
sg24
I-147
sg25
I-147
sg26
I-147
sg27
I-147
sg28
I-147
sg29
I-147
sg30
I-147
sg31
I-147
sg210
I-147
sg212
I-147
sg46
I-147
sg47
I-147
sg48
I-147
sg49
I-147
sg50
I-147
sg51
I-147
sg52
I-147
sg53
I-147
sg54
I-147
sg55
I-147
sg56
I-147
ssI144
(dp281
g276
I-142
sg277
I-142
sg39
I-142
sg40
I-142
sg278
I-142
sg45
I-142
sg46
I-142
sg47
I-142
sg48
I-142
sg49
I-142
sg50
I-142
sg51
I-142
sg52
I-142
sg53
I-142
sg54
I-142
sg55
I-142
sg56
I-142
ssI145
(dp282
g75
I-146
sg3
I-146
sg4
I-146
sg5
I-146
sg6
I-146
sg7
I-146
sg8
I-146
sg9
I-146
sg10
I-146
sg11
I-146
sg12
I-146
sg13
I-146
sg14
I-146
sg15
I-146
sg16
I-146
sg17
I-146
sg18
I-146
sg19
I-146
sg20
I-146
sg21
I-146
sg22
I-146
sg23
I-146
sg24
I-146
sg25
I-146
sg26
I-146
sg27
I-146
sg28
I-146
sg29
I-146
sg30
I-146
sg31
I-146
ssI146
(dp283
g75
I-146
sg5
I-146
sg6
I-146
sg11
I-146
sg12
I-146
sg13
I-146
sg14
I-146
sg15
I-146
sg16
I-146
sg17
I-146
sg18
I-146
ssI147
(dp284
g15
I208
sg181
I207
ssI148
(dp285
g66
I-170
sg10
I-170
sg19
I-170
sg20
I-170
sg21
I-170
sg22
I-170
sg23
I-170
sg24
I-170
sg25
I-170
sg26
I-170
sg27
I-170
sg28
I-170
sg29
I-170
sg30
I-170
sg31
I-170
sg57
I-170
sg58
I-170
sg39
I-170
sg40
I-170
sg41
I-170
sg42
I-170
sg36
I-170
sg45
I-170
sg46
I-170
sg47
I-170
sg48
I-170
sg49
I-170
sg50
I-170
sg51
I-170
sg52
I-170
sg53
I-170
sg54
I-170
sg55
I-170
sg56
I-170
ssI149
(dp286
g19
I-102
sg20
I-102
sg68
I-102
sg21
I-102
sg22
I-102
sg23
I-102
sg24
I-102
sg25
I-102
sg26
I-102
sg27
I-102
sg28
I-102
sg29
I-102
sg30
I-102
sg31
I-102
sg57
I-102
sg58
I-102
sg39
I-102
sg40
I-102
sg41
I-102
sg42
I-102
sg36
I-102
sg45
I-102
sg46
I-102
sg47
I-102
sg48
I-102
sg49
I-102
sg50
I-102
sg51
I-102
sg52
I-102
sg53
I-102
sg54
I-102
sg55
I-102
sg56
I-102
ssI150
(dp287
g46
I209
ssI151
(dp288
g75
I143
sg5
I19
sg6
I20
sg11
I35
sg12
I37
sg13
I38
sg14
I39
sg15
I29
sg16
I36
sg17
I40
sg18
I41
ssI152
(dp289
g57
I-104
sg58
I-104
sg39
I-104
sg40
I-104
sg41
I-104
sg42
I-104
sg36
I-104
sg45
I-104
sg46
I-104
sg47
I-104
sg48
I-104
sg49
I-104
sg50
I-104
sg51
I-104
sg52
I-104
sg53
I-104
sg54
I-104
sg55
I-104
sg56
I-104
sg19
I42
sg20
I43
sg68
I75
sg21
I44
sg22
I45
sg23
I46
sg24
I47
sg25
I48
sg26
I49
sg27
I50
sg28
I51
sg29
I52
sg30
I53
sg31
I54
ssI153
(dp290
g57
I-105
sg58
I-105
sg39
I-105
sg40
I-105
sg41
I-105
sg42
I-105
sg36
I-105
sg45
I-105
sg46
I-105
sg47
I-105
sg48
I-105
sg49
I-105
sg50
I-105
sg51
I-105
sg52
I-105
sg53
I-105
sg54
I-105
sg55
I-105
sg56
I-105
sg19
I42
sg20
I43
sg68
I75
sg21
I44
sg22
I45
sg23
I46
sg24
I47
sg25
I48
sg26
I49
sg27
I50
sg28
I51
sg29
I52
sg30
I53
sg31
I54
ssI154
(dp291
g66
I-9
sg10
I-9
sg19
I-9
sg20
I-9
sg21
I-9
sg22
I-9
sg23
I-9
sg24
I-9
sg25
I-9
sg26
I-9
sg27
I-9
sg28
I-9
sg29
I-9
sg30
I-9
sg31
I-9
sg57
I-9
sg58
I-9
sg39
I-9
sg40
I-9
sg41
I-9
sg42
I-9
sg36
I-9
sg45
I-9
sg46
I-9
sg47
I-9
sg48
I-9
sg49
I-9
sg50
I-9
sg51
I-9
sg52
I-9
sg53
I-9
sg54
I-9
sg55
I-9
sg56
I-9
ssI155
(dp292
g66
I-10
sg10
I-10
sg19
I-10
sg20
I-10
sg21
I-10
sg22
I-10
sg23
I-10
sg24
I-10
sg25
I-10
sg26
I-10
sg27
I-10
sg28
I-10
sg29
I-10
sg30
I-10
sg31
I-10
sg57
I-10
sg58
I-10
sg39
I-10
sg40
I-10
sg41
I-10
sg42
I-10
sg36
I-10
sg45
I-10
sg46
I-10
sg47
I-10
sg48
I-10
sg49
I-10
sg50
I-10
sg51
I-10
sg52
I-10
sg53
I-10
sg54
I-10
sg55
I-10
sg56
I-10
ssI156
(dp293
g66
I-14
sg10
I-14
sg19
I-14
sg20
I-14
sg21
I-14
sg22
I-14
sg23
I-14
sg24
I-14
sg25
I-14
sg26
I-14
sg27
I-14
sg28
I-14
sg29
I-14
sg30
I-14
sg31
I-14
sg57
I-14
sg58
I-14
sg39
I-14
sg40
I-14
sg41
I-14
sg42
I-14
sg36
I-14
sg45
I-14
sg46
I-14
sg47
I-14
sg48
I-14
sg49
I-14
sg50
I-14
sg51
I-14
sg52
I-14
sg53
I-14
sg54
I-14
sg55
I-14
sg56
I-14
ssI157
(dp294
g66
I-17
sg10
I-17
sg19
I-17
sg20
I-17
sg21
I-17
sg22
I-17
sg23
I-17
sg24
I-17
sg25
I-17
sg26
I-17
sg27
I-17
sg28
I-17
sg29
I-17
sg30
I-17
sg31
I-17
sg57
I-17
sg58
I-17
sg39
I-17
sg40
I-17
sg41
I-17
sg42
I-17
sg36
I-17
sg45
I-17
sg46
I-17
sg47
I-17
sg48
I-17
sg49
I-17
sg50
I-17
sg51
I-17
sg52
I-17
sg53
I-17
sg54
I-17
sg55
I-17
sg56
I-17
ssI158
(dp295
g66
I-20
sg10
I-20
sg19
I-20
sg20
I-20
sg21
I-20
sg22
I-20
sg23
I-20
sg24
I-20
sg25
I-20
sg26
I-20
sg27
I-20
sg28
I-20
sg29
I-20
sg30
I-20
sg31
I-20
sg57
I-20
sg58
I-20
sg39
I-20
sg40
I-20
sg41
I-20
sg42
I-20
sg36
I-20
sg45
I-20
sg46
I-20
sg47
I-20
sg48
I-20
sg49
I-20
sg50
I-20
sg51
I-20
sg52
I-20
sg53
I-20
sg54
I-20
sg55
I-20
sg56
I-20
ssI159
(dp296
g66
I-23
sg10
I-23
sg19
I-23
sg20
I-23
sg21
I-23
sg22
I-23
sg23
I-23
sg24
I-23
sg25
I-23
sg26
I-23
sg27
I-23
sg28
I-23
sg29
I-23
sg30
I-23
sg31
I-23
sg57
I-23
sg58
I-23
sg39
I-23
sg40
I-23
sg41
I-23
sg42
I-23
sg36
I-23
sg45
I-23
sg46
I-23
sg47
I-23
sg48
I-23
sg49
I-23
sg50
I-23
sg51
I-23
sg52
I-23
sg53
I-23
sg54
I-23
sg55
I-23
sg56
I-23
ssI160
(dp297
g66
I-26
sg10
I-26
sg19
I-26
sg20
I-26
sg21
I-26
sg22
I-26
sg23
I-26
sg24
I-26
sg25
I-26
sg26
I-26
sg27
I-26
sg28
I-26
sg29
I-26
sg30
I-26
sg31
I-26
sg57
I-26
sg58
I-26
sg39
I-26
sg40
I-26
sg41
I-26
sg42
I-26
sg36
I-26
sg45
I-26
sg46
I-26
sg47
I-26
sg48
I-26
sg49
I-26
sg50
I-26
sg51
I-26
sg52
I-26
sg53
I-26
sg54
I-26
sg55
I-26
sg56
I-26
ssI161
(dp298
g66
I-29
sg10
I-29
sg19
I-29
sg20
I-29
sg21
I-29
sg22
I-29
sg23
I-29
sg24
I-29
sg25
I-29
sg26
I-29
sg27
I-29
sg28
I-29
sg29
I-29
sg30
I-29
sg31
I-29
sg57
I-29
sg58
I-29
sg39
I-29
sg40
I-29
sg41
I-29
sg42
I-29
sg36
I-29
sg45
I-29
sg46
I-29
sg47
I-29
sg48
I-29
sg49
I-29
sg50
I-29
sg51
I-29
sg52
I-29
sg53
I-29
sg54
I-29
sg55
I-29
sg56
I-29
ssI162
(dp299
g66
I-32
sg10
I-32
sg19
I-32
sg20
I-32
sg21
I-32
sg22
I-32
sg23
I-32
sg24
I-32
sg25
I-32
sg26
I-32
sg27
I-32
sg28
I-32
sg29
I-32
sg30
I-32
sg31
I-32
sg57
I-32
sg58
I-32
sg39
I-32
sg40
I-32
sg41
I-32
sg42
I-32
sg36
I-32
sg45
I-32
sg46
I-32
sg47
I-32
sg48
I-32
sg49
I-32
sg50
I-32
sg51
I-32
sg52
I-32
sg53
I-32
sg54
I-32
sg55
I-32
sg56
I-32
ssI163
(dp300
g66
I-38
sg10
I-38
sg19
I-38
sg20
I-38
sg21
I-38
sg22
I-38
sg23
I-38
sg24
I-38
sg25
I-38
sg26
I-38
sg27
I-38
sg28
I-38
sg29
I-38
sg30
I-38
sg31
I-38
sg57
I-38
sg58
I-38
sg39
I-38
sg40
I-38
sg41
I-38
sg42
I-38
sg36
I-38
sg45
I-38
sg46
I-38
sg47
I-38
sg48
I-38
sg49
I-38
sg50
I-38
sg51
I-38
sg52
I-38
sg53
I-38
sg54
I-38
sg55
I-38
sg56
I-38
ssI164
(dp301
g66
I-47
sg10
I-47
sg19
I-47
sg20
I-47
sg21
I-47
sg22
I-47
sg23
I-47
sg24
I-47
sg25
I-47
sg26
I-47
sg27
I-47
sg28
I-47
sg29
I-47
sg30
I-47
sg31
I-47
sg57
I-47
sg58
I-47
sg39
I-47
sg40
I-47
sg41
I-47
sg42
I-47
sg36
I-47
sg45
I-47
sg46
I-47
sg47
I-47
sg48
I-47
sg49
I-47
sg50
I-47
sg51
I-47
sg52
I-47
sg53
I-47
sg54
I-47
sg55
I-47
sg56
I-47
ssI165
(dp302
g66
I-35
sg10
I-35
sg19
I-35
sg20
I-35
sg21
I-35
sg22
I-35
sg23
I-35
sg24
I-35
sg25
I-35
sg26
I-35
sg27
I-35
sg28
I-35
sg29
I-35
sg30
I-35
sg31
I-35
sg57
I-35
sg58
I-35
sg39
I-35
sg40
I-35
sg41
I-35
sg42
I-35
sg36
I-35
sg45
I-35
sg46
I-35
sg47
I-35
sg48
I-35
sg49
I-35
sg50
I-35
sg51
I-35
sg52
I-35
sg53
I-35
sg54
I-35
sg55
I-35
sg56
I-35
ssI166
(dp303
g66
I-41
sg10
I-41
sg19
I-41
sg20
I-41
sg21
I-41
sg22
I-41
sg23
I-41
sg24
I-41
sg25
I-41
sg26
I-41
sg27
I-41
sg28
I-41
sg29
I-41
sg30
I-41
sg31
I-41
sg57
I-41
sg58
I-41
sg39
I-41
sg40
I-41
sg41
I-41
sg42
I-41
sg36
I-41
sg45
I-41
sg46
I-41
sg47
I-41
sg48
I-41
sg49
I-41
sg50
I-41
sg51
I-41
sg52
I-41
sg53
I-41
sg54
I-41
sg55
I-41
sg56
I-41
ssI167
(dp304
g66
I-44
sg10
I-44
sg19
I-44
sg20
I-44
sg21
I-44
sg22
I-44
sg23
I-44
sg24
I-44
sg25
I-44
sg26
I-44
sg27
I-44
sg28
I-44
sg29
I-44
sg30
I-44
sg31
I-44
sg57
I-44
sg58
I-44
sg39
I-44
sg40
I-44
sg41
I-44
sg42
I-44
sg36
I-44
sg45
I-44
sg46
I-44
sg47
I-44
sg48
I-44
sg49
I-44
sg50
I-44
sg51
I-44
sg52
I-44
sg53
I-44
sg54
I-44
sg55
I-44
sg56
I-44
ssI168
(dp305
g210
I213
sg211
I214
sg212
I215
sg75
I143
ssI169
(dp306
VDO
p307
I-146
sVLBRACE
p308
I-146
sg75
I-146
ssI170
(dp309
VDO
p310
I-146
sg154
I-146
sg75
I-146
ssI171
(dp311
g75
I-146
sg3
I-146
sg4
I-146
sg5
I-146
sg6
I-146
sg7
I-146
sg8
I-146
sg9
I-146
sg10
I-146
sg11
I-146
sg12
I-146
sg13
I-146
sg14
I-146
sg15
I-146
sg16
I-146
sg17
I-146
sg18
I-146
sg19
I-146
sg20
I-146
sg21
I-146
sg22
I-146
sg23
I-146
sg24
I-146
sg25
I-146
sg26
I-146
sg27
I-146
sg28
I-146
sg29
I-146
sg30
I-146
sg31
I-146
ssI172
(dp312
g75
I-146
sg3
I-146
sg4
I-146
sg5
I-146
sg6
I-146
sg7
I-146
sg8
I-146
sg9
I-146
sg10
I-146
sg11
I-146
sg12
I-146
sg13
I-146
sg14
I-146
sg15
I-146
sg16
I-146
sg17
I-146
sg18
I-146
sg19
I-146
sg20
I-146
sg21
I-146
sg22
I-146
sg23
I-146
sg24
I-146
sg25
I-146
sg26
I-146
sg27
I-146
sg28
I-146
sg29
I-146
sg30
I-146
sg31
I-146
ssI173
(dp313
g19
I-111
sg20
I-111
sg68
I-111
sg21
I-111
sg22
I-111
sg23
I-111
sg24
I-111
sg25
I-111
sg26
I-111
sg27
I-111
sg28
I-111
sg29
I-111
sg30
I-111
sg31
I-111
sg57
I-111
sg58
I-111
sg39
I-111
sg40
I-111
sg41
I-111
sg42
I-111
sg36
I-111
sg45
I-111
sg46
I-111
sg47
I-111
sg48
I-111
sg49
I-111
sg50
I-111
sg51
I-111
sg52
I-111
sg53
I-111
sg54
I-111
sg55
I-111
sg56
I-111
ssI174
(dp314
g218
I220
sg75
I143
ssI175
(dp315
g220
I221
sg221
I222
sg222
I223
sg75
I143
ssI176
(dp316
VDO
p317
I-146
sVLBRACE
p318
I-146
sg75
I-146
ssI177
(dp319
g75
I-146
sg3
I-146
sg4
I-146
sg5
I-146
sg6
I-146
sg7
I-146
sg8
I-146
sg9
I-146
sg10
I-146
sg11
I-146
sg12
I-146
sg13
I-146
sg14
I-146
sg15
I-146
sg16
I-146
sg17
I-146
sg18
I-146
sg19
I-146
sg20
I-146
sg21
I-146
sg22
I-146
sg23
I-146
sg24
I-146
sg25
I-146
sg26
I-146
sg27
I-146
sg28
I-146
sg29
I-146
sg30
I-146
sg31
I-146
ssI178
(dp320
g19
I-113
sg20
I-113
sg68
I-113
sg21
I-113
sg22
I-113
sg23
I-113
sg24
I-113
sg25
I-113
sg26
I-113
sg27
I-113
sg28
I-113
sg29
I-113
sg30
I-113
sg31
I-113
sg57
I-113
sg58
I-113
sg39
I-113
sg40
I-113
sg41
I-113
sg42
I-113
sg36
I-113
sg45
I-113
sg46
I-113
sg47
I-113
sg48
I-113
sg49
I-113
sg50
I-113
sg51
I-113
sg52
I-113
sg53
I-113
sg54
I-113
sg55
I-113
sg56
I-113
ssI179
(dp321
g66
I-11
sg10
I-11
sg19
I-11
sg20
I-11
sg21
I-11
sg22
I-11
sg23
I-11
sg24
I-11
sg25
I-11
sg26
I-11
sg27
I-11
sg28
I-11
sg29
I-11
sg30
I-11
sg31
I-11
sg57
I-11
sg58
I-11
sg39
I-11
sg40
I-11
sg41
I-11
sg42
I-11
sg36
I-11
sg45
I-11
sg46
I-11
sg47
I-11
sg48
I-11
sg49
I-11
sg50
I-11
sg51
I-11
sg52
I-11
sg53
I-11
sg54
I-11
sg55
I-11
sg56
I-11
ssI180
(dp322
g66
I-12
sg10
I-12
sg19
I-12
sg20
I-12
sg21
I-12
sg22
I-12
sg23
I-12
sg24
I-12
sg25
I-12
sg26
I-12
sg27
I-12
sg28
I-12
sg29
I-12
sg30
I-12
sg31
I-12
sg57
I-12
sg58
I-12
sg39
I-12
sg40
I-12
sg41
I-12
sg42
I-12
sg36
I-12
sg45
I-12
sg46
I-12
sg47
I-12
sg48
I-12
sg49
I-12
sg50
I-12
sg51
I-12
sg52
I-12
sg53
I-12
sg54
I-12
sg55
I-12
sg56
I-12
ssI181
(dp323
g66
I-15
sg10
I-15
sg19
I-15
sg20
I-15
sg21
I-15
sg22
I-15
sg23
I-15
sg24
I-15
sg25
I-15
sg26
I-15
sg27
I-15
sg28
I-15
sg29
I-15
sg30
I-15
sg31
I-15
sg57
I-15
sg58
I-15
sg39
I-15
sg40
I-15
sg41
I-15
sg42
I-15
sg36
I-15
sg45
I-15
sg46
I-15
sg47
I-15
sg48
I-15
sg49
I-15
sg50
I-15
sg51
I-15
sg52
I-15
sg53
I-15
sg54
I-15
sg55
I-15
sg56
I-15
ssI182
(dp324
g66
I-18
sg10
I-18
sg19
I-18
sg20
I-18
sg21
I-18
sg22
I-18
sg23
I-18
sg24
I-18
sg25
I-18
sg26
I-18
sg27
I-18
sg28
I-18
sg29
I-18
sg30
I-18
sg31
I-18
sg57
I-18
sg58
I-18
sg39
I-18
sg40
I-18
sg41
I-18
sg42
I-18
sg36
I-18
sg45
I-18
sg46
I-18
sg47
I-18
sg48
I-18
sg49
I-18
sg50
I-18
sg51
I-18
sg52
I-18
sg53
I-18
sg54
I-18
sg55
I-18
sg56
I-18
ssI183
(dp325
g66
I-21
sg10
I-21
sg19
I-21
sg20
I-21
sg21
I-21
sg22
I-21
sg23
I-21
sg24
I-21
sg25
I-21
sg26
I-21
sg27
I-21
sg28
I-21
sg29
I-21
sg30
I-21
sg31
I-21
sg57
I-21
sg58
I-21
sg39
I-21
sg40
I-21
sg41
I-21
sg42
I-21
sg36
I-21
sg45
I-21
sg46
I-21
sg47
I-21
sg48
I-21
sg49
I-21
sg50
I-21
sg51
I-21
sg52
I-21
sg53
I-21
sg54
I-21
sg55
I-21
sg56
I-21
ssI184
(dp326
g66
I-24
sg10
I-24
sg19
I-24
sg20
I-24
sg21
I-24
sg22
I-24
sg23
I-24
sg24
I-24
sg25
I-24
sg26
I-24
sg27
I-24
sg28
I-24
sg29
I-24
sg30
I-24
sg31
I-24
sg57
I-24
sg58
I-24
sg39
I-24
sg40
I-24
sg41
I-24
sg42
I-24
sg36
I-24
sg45
I-24
sg46
I-24
sg47
I-24
sg48
I-24
sg49
I-24
sg50
I-24
sg51
I-24
sg52
I-24
sg53
I-24
sg54
I-24
sg55
I-24
sg56
I-24
ssI185
(dp327
g66
I-27
sg10
I-27
sg19
I-27
sg20
I-27
sg21
I-27
sg22
I-27
sg23
I-27
sg24
I-27
sg25
I-27
sg26
I-27
sg27
I-27
sg28
I-27
sg29
I-27
sg30
I-27
sg31
I-27
sg57
I-27
sg58
I-27
sg39
I-27
sg40
I-27
sg41
I-27
sg42
I-27
sg36
I-27
sg45
I-27
sg46
I-27
sg47
I-27
sg48
I-27
sg49
I-27
sg50
I-27
sg51
I-27
sg52
I-27
sg53
I-27
sg54
I-27
sg55
I-27
sg56
I-27
ssI186
(dp328
g66
I-30
sg10
I-30
sg19
I-30
sg20
I-30
sg21
I-30
sg22
I-30
sg23
I-30
sg24
I-30
sg25
I-30
sg26
I-30
sg27
I-30
sg28
I-30
sg29
I-30
sg30
I-30
sg31
I-30
sg57
I-30
sg58
I-30
sg39
I-30
sg40
I-30
sg41
I-30
sg42
I-30
sg36
I-30
sg45
I-30
sg46
I-30
sg47
I-30
sg48
I-30
sg49
I-30
sg50
I-30
sg51
I-30
sg52
I-30
sg53
I-30
sg54
I-30
sg55
I-30
sg56
I-30
ssI187
(dp329
g66
I-33
sg10
I-33
sg19
I-33
sg20
I-33
sg21
I-33
sg22
I-33
sg23
I-33
sg24
I-33
sg25
I-33
sg26
I-33
sg27
I-33
sg28
I-33
sg29
I-33
sg30
I-33
sg31
I-33
sg57
I-33
sg58
I-33
sg39
I-33
sg40
I-33
sg41
I-33
sg42
I-33
sg36
I-33
sg45
I-33
sg46
I-33
sg47
I-33
sg48
I-33
sg49
I-33
sg50
I-33
sg51
I-33
sg52
I-33
sg53
I-33
sg54
I-33
sg55
I-33
sg56
I-33
ssI188
(dp330
g66
I-39
sg10
I-39
sg19
I-39
sg20
I-39
sg21
I-39
sg22
I-39
sg23
I-39
sg24
I-39
sg25
I-39
sg26
I-39
sg27
I-39
sg28
I-39
sg29
I-39
sg30
I-39
sg31
I-39
sg57
I-39
sg58
I-39
sg39
I-39
sg40
I-39
sg41
I-39
sg42
I-39
sg36
I-39
sg45
I-39
sg46
I-39
sg47
I-39
sg48
I-39
sg49
I-39
sg50
I-39
sg51
I-39
sg52
I-39
sg53
I-39
sg54
I-39
sg55
I-39
sg56
I-39
ssI189
(dp331
g66
I-48
sg10
I-48
sg19
I-48
sg20
I-48
sg21
I-48
sg22
I-48
sg23
I-48
sg24
I-48
sg25
I-48
sg26
I-48
sg27
I-48
sg28
I-48
sg29
I-48
sg30
I-48
sg31
I-48
sg57
I-48
sg58
I-48
sg39
I-48
sg40
I-48
sg41
I-48
sg42
I-48
sg36
I-48
sg45
I-48
sg46
I-48
sg47
I-48
sg48
I-48
sg49
I-48
sg50
I-48
sg51
I-48
sg52
I-48
sg53
I-48
sg54
I-48
sg55
I-48
sg56
I-48
ssI190
(dp332
g66
I-36
sg10
I-36
sg19
I-36
sg20
I-36
sg21
I-36
sg22
I-36
sg23
I-36
sg24
I-36
sg25
I-36
sg26
I-36
sg27
I-36
sg28
I-36
sg29
I-36
sg30
I-36
sg31
I-36
sg57
I-36
sg58
I-36
sg39
I-36
sg40
I-36
sg41
I-36
sg42
I-36
sg36
I-36
sg45
I-36
sg46
I-36
sg47
I-36
sg48
I-36
sg49
I-36
sg50
I-36
sg51
I-36
sg52
I-36
sg53
I-36
sg54
I-36
sg55
I-36
sg56
I-36
ssI191
(dp333
g66
I-42
sg10
I-42
sg19
I-42
sg20
I-42
sg21
I-42
sg22
I-42
sg23
I-42
sg24
I-42
sg25
I-42
sg26
I-42
sg27
I-42
sg28
I-42
sg29
I-42
sg30
I-42
sg31
I-42
sg57
I-42
sg58
I-42
sg39
I-42
sg40
I-42
sg41
I-42
sg42
I-42
sg36
I-42
sg45
I-42
sg46
I-42
sg47
I-42
sg48
I-42
sg49
I-42
sg50
I-42
sg51
I-42
sg52
I-42
sg53
I-42
sg54
I-42
sg55
I-42
sg56
I-42
ssI192
(dp334
g66
I-45
sg10
I-45
sg19
I-45
sg20
I-45
sg21
I-45
sg22
I-45
sg23
I-45
sg24
I-45
sg25
I-45
sg26
I-45
sg27
I-45
sg28
I-45
sg29
I-45
sg30
I-45
sg31
I-45
sg57
I-45
sg58
I-45
sg39
I-45
sg40
I-45
sg41
I-45
sg42
I-45
sg36
I-45
sg45
I-45
sg46
I-45
sg47
I-45
sg48
I-45
sg49
I-45
sg50
I-45
sg51
I-45
sg52
I-45
sg53
I-45
sg54
I-45
sg55
I-45
sg56
I-45
ssI193
(dp335
g3
I8
sg4
I11
sg5
I19
sg6
I20
sg7
I28
sg8
I30
sg9
I31
sg10
I34
sg11
I35
sg12
I37
sg13
I38
sg14
I39
sg15
I29
sg16
I36
sg17
I40
sg18
I41
sg19
I42
sg20
I43
sg21
I44
sg22
I45
sg23
I46
sg24
I47
sg25
I48
sg26
I49
sg27
I50
sg28
I51
sg29
I52
sg30
I53
sg31
I54
ssI194
(dp336
g3
I8
sg4
I11
sg5
I19
sg6
I20
sg7
I28
sg8
I30
sg9
I31
sg10
I34
sg11
I35
sg12
I37
sg13
I38
sg14
I39
sg15
I29
sg16
I36
sg17
I40
sg18
I41
sg19
I42
sg20
I43
sg21
I44
sg22
I45
sg23
I46
sg24
I47
sg25
I48
sg26
I49
sg27
I50
sg28
I51
sg29
I52
sg30
I53
sg31
I54
ssI195
(dp337
g39
I-151
sg40
I-151
sg41
I-151
sg42
I-151
sg36
I-151
ssI196
(dp338
g39
I-152
sg40
I-152
sg41
I-152
sg42
I-152
sg36
I-152
ssI197
(dp339
g57
I62
sg58
I63
sg39
I-161
sg40
I-161
sg41
I-161
sg42
I-161
sg36
I-161
sg45
I-161
sg46
I-161
sg47
I-161
sg48
I-161
sg49
I-161
sg50
I-161
sg51
I-161
sg52
I-161
sg53
I-161
sg54
I-161
sg55
I-161
sg56
I-161
ssI198
(dp340
g57
I62
sg58
I63
sg39
I-162
sg40
I-162
sg41
I-162
sg42
I-162
sg36
I-162
sg45
I-162
sg46
I-162
sg47
I-162
sg48
I-162
sg49
I-162
sg50
I-162
sg51
I-162
sg52
I-162
sg53
I-162
sg54
I-162
sg55
I-162
sg56
I-162
ssI199
(dp341
g49
I226
ssI200
(dp342
g75
I-146
sg3
I-146
sg4
I-146
sg5
I-146
sg6
I-146
sg7
I-146
sg8
I-146
sg9
I-146
sg10
I-146
sg11
I-146
sg12
I-146
sg13
I-146
sg14
I-146
sg15
I-146
sg16
I-146
sg17
I-146
sg18
I-146
sg19
I-146
sg20
I-146
sg21
I-146
sg22
I-146
sg23
I-146
sg24
I-146
sg25
I-146
sg26
I-146
sg27
I-146
sg28
I-146
sg29
I-146
sg30
I-146
sg31
I-146
ssI201
(dp343
g75
I-146
sg3
I-146
sg4
I-146
sg5
I-146
sg6
I-146
sg7
I-146
sg8
I-146
sg9
I-146
sg10
I-146
sg11
I-146
sg12
I-146
sg13
I-146
sg14
I-146
sg15
I-146
sg16
I-146
sg17
I-146
sg18
I-146
sg19
I-146
sg20
I-146
sg21
I-146
sg22
I-146
sg23
I-146
sg24
I-146
sg25
I-146
sg26
I-146
sg27
I-146
sg28
I-146
sg29
I-146
sg30
I-146
sg31
I-146
ssI202
(dp344
g75
I-146
sg3
I-146
sg4
I-146
sg5
I-146
sg6
I-146
sg7
I-146
sg8
I-146
sg9
I-146
sg10
I-146
sg11
I-146
sg12
I-146
sg13
I-146
sg14
I-146
sg15
I-146
sg16
I-146
sg17
I-146
sg18
I-146
sg19
I-146
sg20
I-146
sg21
I-146
sg22
I-146
sg23
I-146
sg24
I-146
sg25
I-146
sg26
I-146
sg27
I-146
sg28
I-146
sg29
I-146
sg30
I-146
sg31
I-146
sg45
I-146
sg46
I-146
sg47
I-146
sg48
I-146
sg49
I-146
sg50
I-146
sg51
I-146
sg52
I-146
sg53
I-146
sg54
I-146
sg55
I-146
sg56
I-146
ssI203
(dp345
g75
I-146
sg3
I-146
sg4
I-146
sg5
I-146
sg6
I-146
sg7
I-146
sg8
I-146
sg9
I-146
sg10
I-146
sg11
I-146
sg12
I-146
sg13
I-146
sg14
I-146
sg15
I-146
sg16
I-146
sg17
I-146
sg18
I-146
sg19
I-146
sg20
I-146
sg21
I-146
sg22
I-146
sg23
I-146
sg24
I-146
sg25
I-146
sg26
I-146
sg27
I-146
sg28
I-146
sg29
I-146
sg30
I-146
sg31
I-146
sg45
I-146
sg46
I-146
sg47
I-146
sg48
I-146
sg49
I-146
sg50
I-146
sg51
I-146
sg52
I-146
sg53
I-146
sg54
I-146
sg55
I-146
sg56
I-146
ssI204
(dp346
g75
I-146
sg3
I-146
sg4
I-146
sg5
I-146
sg6
I-146
sg7
I-146
sg8
I-146
sg9
I-146
sg10
I-146
sg11
I-146
sg12
I-146
sg13
I-146
sg14
I-146
sg15
I-146
sg16
I-146
sg17
I-146
sg18
I-146
sg19
I-146
sg20
I-146
sg21
I-146
sg22
I-146
sg23
I-146
sg24
I-146
sg25
I-146
sg26
I-146
sg27
I-146
sg28
I-146
sg29
I-146
sg30
I-146
sg31
I-146
sg45
I-146
sg46
I-146
sg47
I-146
sg48
I-146
sg49
I-146
sg50
I-146
sg51
I-146
sg52
I-146
sg53
I-146
sg54
I-146
sg55
I-146
sg56
I-146
ssI205
(dp347
VDONE
p348
I232
ssI206
(dp349
g75
I143
sg5
I19
sg6
I20
sg11
I35
sg12
I37
sg13
I38
sg14
I39
sg15
I29
sg16
I36
sg17
I40
sg18
I41
ssI207
(dp350
g66
I-173
sg10
I-173
sg19
I-173
sg20
I-173
sg21
I-173
sg22
I-173
sg23
I-173
sg24
I-173
sg25
I-173
sg26
I-173
sg27
I-173
sg28
I-173
sg29
I-173
sg30
I-173
sg31
I-173
sg57
I-173
sg58
I-173
sg39
I-173
sg40
I-173
sg41
I-173
sg42
I-173
sg36
I-173
sg45
I-173
sg46
I-173
sg47
I-173
sg48
I-173
sg49
I-173
sg50
I-173
sg51
I-173
sg52
I-173
sg53
I-173
sg54
I-173
sg55
I-173
sg56
I-173
ssI208
(dp351
g75
I-146
sVWORD
p352
I-146
ssI209
(dp353
g75
I-146
sg5
I-146
sg6
I-146
sg11
I-146
sg12
I-146
sg13
I-146
sg14
I-146
sg15
I-146
sg16
I-146
sg17
I-146
sg18
I-146
ssI210
(dp354
g57
I-99
sg58
I-99
sg39
I-99
sg40
I-99
sg41
I-99
sg42
I-99
sg36
I-99
sg45
I-99
sg46
I-99
sg47
I-99
sg48
I-99
sg49
I-99
sg50
I-99
sg51
I-99
sg52
I-99
sg53
I-99
sg54
I-99
sg55
I-99
sg56
I-99
ssI211
(dp355
g57
I-100
sg58
I-100
sg39
I-100
sg40
I-100
sg41
I-100
sg42
I-100
sg36
I-100
sg45
I-100
sg46
I-100
sg47
I-100
sg48
I-100
sg49
I-100
sg50
I-100
sg51
I-100
sg52
I-100
sg53
I-100
sg54
I-100
sg55
I-100
sg56
I-100
sg19
I42
sg20
I43
sg68
I75
sg21
I44
sg22
I45
sg23
I46
sg24
I47
sg25
I48
sg26
I49
sg27
I50
sg28
I51
sg29
I52
sg30
I53
sg31
I54
ssI212
(dp356
g57
I-106
sg58
I-106
sg39
I-106
sg40
I-106
sg41
I-106
sg42
I-106
sg36
I-106
sg45
I-106
sg46
I-106
sg47
I-106
sg48
I-106
sg49
I-106
sg50
I-106
sg51
I-106
sg52
I-106
sg53
I-106
sg54
I-106
sg55
I-106
sg56
I-106
sg19
I42
sg20
I43
sg68
I75
sg21
I44
sg22
I45
sg23
I46
sg24
I47
sg25
I48
sg26
I49
sg27
I50
sg28
I51
sg29
I52
sg30
I53
sg31
I54
ssI213
(dp357
g75
I-146
sg3
I-146
sg4
I-146
sg5
I-146
sg6
I-146
sg7
I-146
sg8
I-146
sg9
I-146
sg10
I-146
sg11
I-146
sg12
I-146
sg13
I-146
sg14
I-146
sg15
I-146
sg16
I-146
sg17
I-146
sg18
I-146
sg19
I-146
sg20
I-146
sg21
I-146
sg22
I-146
sg23
I-146
sg24
I-146
sg25
I-146
sg26
I-146
sg27
I-146
sg28
I-146
sg29
I-146
sg30
I-146
sg31
I-146
ssI214
(dp358
g75
I-146
sg3
I-146
sg4
I-146
sg5
I-146
sg6
I-146
sg7
I-146
sg8
I-146
sg9
I-146
sg10
I-146
sg11
I-146
sg12
I-146
sg13
I-146
sg14
I-146
sg15
I-146
sg16
I-146
sg17
I-146
sg18
I-146
sg19
I-146
sg20
I-146
sg21
I-146
sg22
I-146
sg23
I-146
sg24
I-146
sg25
I-146
sg26
I-146
sg27
I-146
sg28
I-146
sg29
I-146
sg30
I-146
sg31
I-146
ssI215
(dp359
g352
I240
sVNUMBER
p360
I244
sg60
I66
sg40
I67
ssI216
(dp361
g307
I245
sg308
I246
sg75
I143
ssI217
(dp362
g310
I247
sg154
I248
sg75
I143
ssI218
(dp363
VDONE
p364
I249
ssI219
(dp365
g47
I250
ssI220
(dp366
VESAC
p367
I-146
sg75
I-146
sg15
I-146
sVWORD
p368
I-146
ssI221
(dp369
g75
I-146
sg3
I-146
sg4
I-146
sg5
I-146
sg6
I-146
sg7
I-146
sg8
I-146
sg9
I-146
sg10
I-146
sg11
I-146
sg12
I-146
sg13
I-146
sg14
I-146
sg15
I-146
sg16
I-146
sg17
I-146
sg18
I-146
sg19
I-146
sg20
I-146
sg21
I-146
sg22
I-146
sg23
I-146
sg24
I-146
sg25
I-146
sg26
I-146
sg27
I-146
sg28
I-146
sg29
I-146
sg30
I-146
sg31
I-146
ssI222
(dp370
g75
I-146
sg3
I-146
sg4
I-146
sg5
I-146
sg6
I-146
sg7
I-146
sg8
I-146
sg9
I-146
sg10
I-146
sg11
I-146
sg12
I-146
sg13
I-146
sg14
I-146
sg15
I-146
sg16
I-146
sg17
I-146
sg18
I-146
sg19
I-146
sg20
I-146
sg21
I-146
sg22
I-146
sg23
I-146
sg24
I-146
sg25
I-146
sg26
I-146
sg27
I-146
sg28
I-146
sg29
I-146
sg30
I-146
sg31
I-146
ssI223
(dp371
g352
I240
ssI224
(dp372
g317
I259
sg318
I260
sg75
I143
ssI225
(dp373
g50
I261
sg51
I262
sg52
I264
ssI226
(dp374
g19
I-65
sg20
I-65
sg68
I-65
sg21
I-65
sg22
I-65
sg23
I-65
sg24
I-65
sg25
I-65
sg26
I-65
sg27
I-65
sg28
I-65
sg29
I-65
sg30
I-65
sg31
I-65
sg57
I-65
sg58
I-65
sg39
I-65
sg40
I-65
sg41
I-65
sg42
I-65
sg36
I-65
sg45
I-65
sg46
I-65
sg47
I-65
sg48
I-65
sg49
I-65
sg50
I-65
sg51
I-65
sg52
I-65
sg53
I-65
sg54
I-65
sg55
I-65
sg56
I-65
ssI227
(dp375
g75
I143
sg3
I8
sg4
I11
sg5
I19
sg6
I20
sg7
I28
sg8
I30
sg9
I31
sg10
I34
sg11
I35
sg12
I37
sg13
I38
sg14
I39
sg15
I29
sg16
I36
sg17
I40
sg18
I41
sg19
I42
sg20
I43
sg21
I44
sg22
I45
sg23
I46
sg24
I47
sg25
I48
sg26
I49
sg27
I50
sg28
I51
sg29
I52
sg30
I53
sg31
I54
ssI228
(dp376
g75
I143
sg3
I8
sg4
I11
sg5
I19
sg6
I20
sg7
I28
sg8
I30
sg9
I31
sg10
I34
sg11
I35
sg12
I37
sg13
I38
sg14
I39
sg15
I29
sg16
I36
sg17
I40
sg18
I41
sg19
I42
sg20
I43
sg21
I44
sg22
I45
sg23
I46
sg24
I47
sg25
I48
sg26
I49
sg27
I50
sg28
I51
sg29
I52
sg30
I53
sg31
I54
ssI229
(dp377
g45
I-135
sg46
I-135
sg47
I-135
sg48
I-135
sg49
I-135
sg50
I-135
sg51
I-135
sg52
I-135
sg53
I-135
sg54
I-135
sg55
I-135
sg56
I-135
sg75
I143
sg3
I8
sg4
I11
sg5
I19
sg6
I20
sg7
I28
sg8
I30
sg9
I31
sg10
I34
sg11
I35
sg12
I37
sg13
I38
sg14
I39
sg15
I29
sg16
I36
sg17
I40
sg18
I41
sg19
I42
sg20
I43
sg21
I44
sg22
I45
sg23
I46
sg24
I47
sg25
I48
sg26
I49
sg27
I50
sg28
I51
sg29
I52
sg30
I53
sg31
I54
ssI230
(dp378
g45
I-136
sg46
I-136
sg47
I-136
sg48
I-136
sg49
I-136
sg50
I-136
sg51
I-136
sg52
I-136
sg53
I-136
sg54
I-136
sg55
I-136
sg56
I-136
sg75
I143
sg3
I8
sg4
I11
sg5
I19
sg6
I20
sg7
I28
sg8
I30
sg9
I31
sg10
I34
sg11
I35
sg12
I37
sg13
I38
sg14
I39
sg15
I29
sg16
I36
sg17
I40
sg18
I41
sg19
I42
sg20
I43
sg21
I44
sg22
I45
sg23
I46
sg24
I47
sg25
I48
sg26
I49
sg27
I50
sg28
I51
sg29
I52
sg30
I53
sg31
I54
ssI231
(dp379
g45
I-134
sg46
I-134
sg47
I-134
sg48
I-134
sg49
I-134
sg50
I-134
sg51
I-134
sg52
I-134
sg53
I-134
sg54
I-134
sg55
I-134
sg56
I-134
sg75
I143
sg3
I8
sg4
I11
sg5
I19
sg6
I20
sg7
I28
sg8
I30
sg9
I31
sg10
I34
sg11
I35
sg12
I37
sg13
I38
sg14
I39
sg15
I29
sg16
I36
sg17
I40
sg18
I41
sg19
I42
sg20
I43
sg21
I44
sg22
I45
sg23
I46
sg24
I47
sg25
I48
sg26
I49
sg27
I50
sg28
I51
sg29
I52
sg30
I53
sg31
I54
ssI232
(dp380
g19
I-66
sg20
I-66
sg68
I-66
sg21
I-66
sg22
I-66
sg23
I-66
sg24
I-66
sg25
I-66
sg26
I-66
sg27
I-66
sg28
I-66
sg29
I-66
sg30
I-66
sg31
I-66
sg57
I-66
sg58
I-66
sg39
I-66
sg40
I-66
sg41
I-66
sg42
I-66
sg36
I-66
sg45
I-66
sg46
I-66
sg47
I-66
sg48
I-66
sg49
I-66
sg50
I-66
sg51
I-66
sg52
I-66
sg53
I-66
sg54
I-66
sg55
I-66
sg56
I-66
ssI233
(dp381
g57
I-97
sg58
I-97
sg39
I-97
sg40
I-97
sg41
I-97
sg42
I-97
sg36
I-97
sg45
I-97
sg46
I-97
sg47
I-97
sg48
I-97
sg49
I-97
sg50
I-97
sg51
I-97
sg52
I-97
sg53
I-97
sg54
I-97
sg55
I-97
sg56
I-97
ssI234
(dp382
g66
I-171
sg10
I-171
sg19
I-171
sg20
I-171
sg21
I-171
sg22
I-171
sg23
I-171
sg24
I-171
sg25
I-171
sg26
I-171
sg27
I-171
sg28
I-171
sg29
I-171
sg30
I-171
sg31
I-171
sg57
I-171
sg58
I-171
sg39
I-171
sg40
I-171
sg41
I-171
sg42
I-171
sg36
I-171
sg45
I-171
sg46
I-171
sg47
I-171
sg48
I-171
sg49
I-171
sg50
I-171
sg51
I-171
sg52
I-171
sg53
I-171
sg54
I-171
sg55
I-171
sg56
I-171
ssI235
(dp383
g75
I143
sg352
I240
ssI236
(dp384
g75
I143
sg5
I19
sg6
I20
sg11
I35
sg12
I37
sg13
I38
sg14
I39
sg15
I29
sg16
I36
sg17
I40
sg18
I41
ssI237
(dp385
g57
I-101
sg58
I-101
sg39
I-101
sg40
I-101
sg41
I-101
sg42
I-101
sg36
I-101
sg45
I-101
sg46
I-101
sg47
I-101
sg48
I-101
sg49
I-101
sg50
I-101
sg51
I-101
sg52
I-101
sg53
I-101
sg54
I-101
sg55
I-101
sg56
I-101
sg19
I42
sg20
I43
sg68
I75
sg21
I44
sg22
I45
sg23
I46
sg24
I47
sg25
I48
sg26
I49
sg27
I50
sg28
I51
sg29
I52
sg30
I53
sg31
I54
ssI238
(dp386
VDONE
p387
I272
ssI239
(dp388
g47
I273
ssI240
(dp389
g60
I-5
sg40
I-5
sVWORD
p390
I-5
sg46
I-5
ssI241
(dp391
g60
I66
sg40
I67
sg390
I-146
ssI242
(dp392
VDO
p393
I-146
sVLBRACE
p394
I-146
sg75
I-146
ssI243
(dp395
g60
I66
sg40
I67
sVNUMBER
p396
I-146
ssI244
(dp397
g60
I-167
sg40
I-167
sg396
I-167
ssI245
(dp398
g75
I-146
sg3
I-146
sg4
I-146
sg5
I-146
sg6
I-146
sg7
I-146
sg8
I-146
sg9
I-146
sg10
I-146
sg11
I-146
sg12
I-146
sg13
I-146
sg14
I-146
sg15
I-146
sg16
I-146
sg17
I-146
sg18
I-146
sg19
I-146
sg20
I-146
sg21
I-146
sg22
I-146
sg23
I-146
sg24
I-146
sg25
I-146
sg26
I-146
sg27
I-146
sg28
I-146
sg29
I-146
sg30
I-146
sg31
I-146
ssI246
(dp399
g75
I-146
sg3
I-146
sg4
I-146
sg5
I-146
sg6
I-146
sg7
I-146
sg8
I-146
sg9
I-146
sg10
I-146
sg11
I-146
sg12
I-146
sg13
I-146
sg14
I-146
sg15
I-146
sg16
I-146
sg17
I-146
sg18
I-146
sg19
I-146
sg20
I-146
sg21
I-146
sg22
I-146
sg23
I-146
sg24
I-146
sg25
I-146
sg26
I-146
sg27
I-146
sg28
I-146
sg29
I-146
sg30
I-146
sg31
I-146
ssI247
(dp400
g75
I-146
sg3
I-146
sg4
I-146
sg5
I-146
sg6
I-146
sg7
I-146
sg8
I-146
sg9
I-146
sg10
I-146
sg11
I-146
sg12
I-146
sg13
I-146
sg14
I-146
sg15
I-146
sg16
I-146
sg17
I-146
sg18
I-146
sg19
I-146
sg20
I-146
sg21
I-146
sg22
I-146
sg23
I-146
sg24
I-146
sg25
I-146
sg26
I-146
sg27
I-146
sg28
I-146
sg29
I-146
sg30
I-146
sg31
I-146
ssI248
(dp401
g75
I-146
sg3
I-146
sg4
I-146
sg5
I-146
sg6
I-146
sg7
I-146
sg8
I-146
sg9
I-146
sg10
I-146
sg11
I-146
sg12
I-146
sg13
I-146
sg14
I-146
sg15
I-146
sg16
I-146
sg17
I-146
sg18
I-146
sg19
I-146
sg20
I-146
sg21
I-146
sg22
I-146
sg23
I-146
sg24
I-146
sg25
I-146
sg26
I-146
sg27
I-146
sg28
I-146
sg29
I-146
sg30
I-146
sg31
I-146
ssI249
(dp402
g19
I-86
sg20
I-86
sg68
I-86
sg21
I-86
sg22
I-86
sg23
I-86
sg24
I-86
sg25
I-86
sg26
I-86
sg27
I-86
sg28
I-86
sg29
I-86
sg30
I-86
sg31
I-86
sg57
I-86
sg58
I-86
sg39
I-86
sg40
I-86
sg41
I-86
sg42
I-86
sg36
I-86
sg45
I-86
sg46
I-86
sg47
I-86
sg48
I-86
sg49
I-86
sg50
I-86
sg51
I-86
sg52
I-86
sg53
I-86
sg54
I-86
sg55
I-86
sg56
I-86
ssI250
(dp403
g19
I-87
sg20
I-87
sg68
I-87
sg21
I-87
sg22
I-87
sg23
I-87
sg24
I-87
sg25
I-87
sg26
I-87
sg27
I-87
sg28
I-87
sg29
I-87
sg30
I-87
sg31
I-87
sg57
I-87
sg58
I-87
sg39
I-87
sg40
I-87
sg41
I-87
sg42
I-87
sg36
I-87
sg45
I-87
sg46
I-87
sg47
I-87
sg48
I-87
sg49
I-87
sg50
I-87
sg51
I-87
sg52
I-87
sg53
I-87
sg54
I-87
sg55
I-87
sg56
I-87
ssI251
(dp404
g367
I284
sg75
I143
sg15
I286
sg368
I283
ssI252
(dp405
VESAC
p406
I-146
sg75
I-146
sg15
I-146
sg368
I-146
ssI253
(dp407
g56
I289
ssI254
(dp408
g53
I290
sg54
I291
sg55
I292
sg56
I-117
ssI255
(dp409
g75
I143
sg3
I8
sg4
I11
sg5
I19
sg6
I20
sg7
I28
sg8
I30
sg9
I31
sg10
I34
sg11
I35
sg12
I37
sg13
I38
sg14
I39
sg15
I29
sg16
I36
sg17
I40
sg18
I41
sg19
I42
sg20
I43
sg21
I44
sg22
I45
sg23
I46
sg24
I47
sg25
I48
sg26
I49
sg27
I50
sg28
I51
sg29
I52
sg30
I53
sg31
I54
ssI256
(dp410
VDONE
p411
I294
ssI257
(dp412
g47
I295
ssI258
(dp413
g60
I66
sg40
I67
sg390
I-146
ssI259
(dp414
g75
I-146
sg3
I-146
sg4
I-146
sg5
I-146
sg6
I-146
sg7
I-146
sg8
I-146
sg9
I-146
sg10
I-146
sg11
I-146
sg12
I-146
sg13
I-146
sg14
I-146
sg15
I-146
sg16
I-146
sg17
I-146
sg18
I-146
sg19
I-146
sg20
I-146
sg21
I-146
sg22
I-146
sg23
I-146
sg24
I-146
sg25
I-146
sg26
I-146
sg27
I-146
sg28
I-146
sg29
I-146
sg30
I-146
sg31
I-146
ssI260
(dp415
g75
I-146
sg3
I-146
sg4
I-146
sg5
I-146
sg6
I-146
sg7
I-146
sg8
I-146
sg9
I-146
sg10
I-146
sg11
I-146
sg12
I-146
sg13
I-146
sg14
I-146
sg15
I-146
sg16
I-146
sg17
I-146
sg18
I-146
sg19
I-146
sg20
I-146
sg21
I-146
sg22
I-146
sg23
I-146
sg24
I-146
sg25
I-146
sg26
I-146
sg27
I-146
sg28
I-146
sg29
I-146
sg30
I-146
sg31
I-146
ssI261
(dp416
g19
I-108
sg20
I-108
sg68
I-108
sg21
I-108
sg22
I-108
sg23
I-108
sg24
I-108
sg25
I-108
sg26
I-108
sg27
I-108
sg28
I-108
sg29
I-108
sg30
I-108
sg31
I-108
sg57
I-108
sg58
I-108
sg39
I-108
sg40
I-108
sg41
I-108
sg42
I-108
sg36
I-108
sg45
I-108
sg46
I-108
sg47
I-108
sg48
I-108
sg49
I-108
sg50
I-108
sg51
I-108
sg52
I-108
sg53
I-108
sg54
I-108
sg55
I-108
sg56
I-108
ssI262
(dp417
g75
I-146
sg3
I-146
sg4
I-146
sg5
I-146
sg6
I-146
sg7
I-146
sg8
I-146
sg9
I-146
sg10
I-146
sg11
I-146
sg12
I-146
sg13
I-146
sg14
I-146
sg15
I-146
sg16
I-146
sg17
I-146
sg18
I-146
sg19
I-146
sg20
I-146
sg21
I-146
sg22
I-146
sg23
I-146
sg24
I-146
sg25
I-146
sg26
I-146
sg27
I-146
sg28
I-146
sg29
I-146
sg30
I-146
sg31
I-146
ssI263
(dp418
VFI
p419
I300
ssI264
(dp420
g75
I-146
sg3
I-146
sg4
I-146
sg5
I-146
sg6
I-146
sg7
I-146
sg8
I-146
sg9
I-146
sg10
I-146
sg11
I-146
sg12
I-146
sg13
I-146
sg14
I-146
sg15
I-146
sg16
I-146
sg17
I-146
sg18
I-146
sg19
I-146
sg20
I-146
sg21
I-146
sg22
I-146
sg23
I-146
sg24
I-146
sg25
I-146
sg26
I-146
sg27
I-146
sg28
I-146
sg29
I-146
sg30
I-146
sg31
I-146
ssI265
(dp421
g276
I-137
sg277
I-137
sg39
I-137
sg40
I-137
sg278
I-137
sg45
I-137
sg46
I-137
sg47
I-137
sg48
I-137
sg49
I-137
sg50
I-137
sg51
I-137
sg52
I-137
sg53
I-137
sg54
I-137
sg55
I-137
sg56
I-137
ssI266
(dp422
g276
I-138
sg277
I-138
sg39
I-138
sg40
I-138
sg278
I-138
sg45
I-138
sg46
I-138
sg47
I-138
sg48
I-138
sg49
I-138
sg50
I-138
sg51
I-138
sg52
I-138
sg53
I-138
sg54
I-138
sg55
I-138
sg56
I-138
ssI267
(dp423
g276
I200
sg277
I201
sg39
I-139
sg40
I-139
sg278
I-139
sg45
I-139
sg46
I-139
sg47
I-139
sg48
I-139
sg49
I-139
sg50
I-139
sg51
I-139
sg52
I-139
sg53
I-139
sg54
I-139
sg55
I-139
sg56
I-139
ssI268
(dp424
g276
I200
sg277
I201
sg39
I-140
sg40
I-140
sg278
I-140
sg45
I-140
sg46
I-140
sg47
I-140
sg48
I-140
sg49
I-140
sg50
I-140
sg51
I-140
sg52
I-140
sg53
I-140
sg54
I-140
sg55
I-140
sg56
I-140
ssI269
(dp425
g276
I200
sg277
I201
sg39
I-141
sg40
I-141
sg278
I-141
sg45
I-141
sg46
I-141
sg47
I-141
sg48
I-141
sg49
I-141
sg50
I-141
sg51
I-141
sg52
I-141
sg53
I-141
sg54
I-141
sg55
I-141
sg56
I-141
ssI270
(dp426
g46
I-146
sg390
I-146
sg75
I-146
ssI271
(dp427
g57
I-98
sg58
I-98
sg39
I-98
sg40
I-98
sg41
I-98
sg42
I-98
sg36
I-98
sg45
I-98
sg46
I-98
sg47
I-98
sg48
I-98
sg49
I-98
sg50
I-98
sg51
I-98
sg52
I-98
sg53
I-98
sg54
I-98
sg55
I-98
sg56
I-98
ssI272
(dp428
g19
I-74
sg20
I-74
sg68
I-74
sg21
I-74
sg22
I-74
sg23
I-74
sg24
I-74
sg25
I-74
sg26
I-74
sg27
I-74
sg28
I-74
sg29
I-74
sg30
I-74
sg31
I-74
sg57
I-74
sg58
I-74
sg39
I-74
sg40
I-74
sg41
I-74
sg42
I-74
sg36
I-74
sg45
I-74
sg46
I-74
sg47
I-74
sg48
I-74
sg49
I-74
sg50
I-74
sg51
I-74
sg52
I-74
sg53
I-74
sg54
I-74
sg55
I-74
sg56
I-74
ssI273
(dp429
g19
I-75
sg20
I-75
sg68
I-75
sg21
I-75
sg22
I-75
sg23
I-75
sg24
I-75
sg25
I-75
sg26
I-75
sg27
I-75
sg28
I-75
sg29
I-75
sg30
I-75
sg31
I-75
sg57
I-75
sg58
I-75
sg39
I-75
sg40
I-75
sg41
I-75
sg42
I-75
sg36
I-75
sg45
I-75
sg46
I-75
sg47
I-75
sg48
I-75
sg49
I-75
sg50
I-75
sg51
I-75
sg52
I-75
sg53
I-75
sg54
I-75
sg55
I-75
sg56
I-75
ssI274
(dp430
g390
I306
sg75
I143
ssI275
(dp431
VDO
p432
I-146
sVLBRACE
p433
I-146
sg75
I-146
ssI276
(dp434
g393
I308
sg394
I309
sg75
I143
ssI277
(dp435
g396
I310
sg75
I143
ssI278
(dp436
VDO
p437
I-146
sVLBRACE
p438
I-146
sg75
I-146
ssI279
(dp439
VDONE
p440
I312
ssI280
(dp441
g47
I313
ssI281
(dp442
VDONE
p443
I314
ssI282
(dp444
g47
I315
ssI283
(dp445
g46
I-129
sg57
I-129
ssI284
(dp446
g19
I-94
sg20
I-94
sg68
I-94
sg21
I-94
sg22
I-94
sg23
I-94
sg24
I-94
sg25
I-94
sg26
I-94
sg27
I-94
sg28
I-94
sg29
I-94
sg30
I-94
sg31
I-94
sg57
I-94
sg58
I-94
sg39
I-94
sg40
I-94
sg41
I-94
sg42
I-94
sg36
I-94
sg45
I-94
sg46
I-94
sg47
I-94
sg48
I-94
sg49
I-94
sg50
I-94
sg51
I-94
sg52
I-94
sg53
I-94
sg54
I-94
sg55
I-94
sg56
I-94
ssI285
(dp447
g46
I316
sg57
I317
ssI286
(dp448
g368
I283
ssI287
(dp449
g406
I319
sg75
I143
sg15
I286
sg368
I283
ssI288
(dp450
VSEMI_SEMI
p451
I320
sVSEMI_AND
p452
I321
sVSEMI_SEMI_AND
p453
I322
sg56
I-118
ssI289
(dp454
g19
I-96
sg20
I-96
sg68
I-96
sg21
I-96
sg22
I-96
sg23
I-96
sg24
I-96
sg25
I-96
sg26
I-96
sg27
I-96
sg28
I-96
sg29
I-96
sg30
I-96
sg31
I-96
sg57
I-96
sg58
I-96
sg39
I-96
sg40
I-96
sg41
I-96
sg42
I-96
sg36
I-96
sg45
I-96
sg46
I-96
sg47
I-96
sg48
I-96
sg49
I-96
sg50
I-96
sg51
I-96
sg52
I-96
sg53
I-96
sg54
I-96
sg55
I-96
sg56
I-96
ssI290
(dp455
g406
I-123
sg75
I-123
sg15
I-123
sg368
I-123
ssI291
(dp456
g406
I-125
sg75
I-125
sg15
I-125
sg368
I-125
ssI292
(dp457
g406
I-127
sg75
I-127
sg15
I-127
sg368
I-127
ssI293
(dp458
VNEWLINE
p459
I323
sg39
I324
sg40
I325
sg276
I200
sg277
I201
ssI294
(dp460
g19
I-88
sg20
I-88
sg68
I-88
sg21
I-88
sg22
I-88
sg23
I-88
sg24
I-88
sg25
I-88
sg26
I-88
sg27
I-88
sg28
I-88
sg29
I-88
sg30
I-88
sg31
I-88
sg57
I-88
sg58
I-88
sg39
I-88
sg40
I-88
sg41
I-88
sg42
I-88
sg36
I-88
sg45
I-88
sg46
I-88
sg47
I-88
sg48
I-88
sg49
I-88
sg50
I-88
sg51
I-88
sg52
I-88
sg53
I-88
sg54
I-88
sg55
I-88
sg56
I-88
ssI295
(dp461
g19
I-89
sg20
I-89
sg68
I-89
sg21
I-89
sg22
I-89
sg23
I-89
sg24
I-89
sg25
I-89
sg26
I-89
sg27
I-89
sg28
I-89
sg29
I-89
sg30
I-89
sg31
I-89
sg57
I-89
sg58
I-89
sg39
I-89
sg40
I-89
sg41
I-89
sg42
I-89
sg36
I-89
sg45
I-89
sg46
I-89
sg47
I-89
sg48
I-89
sg49
I-89
sg50
I-89
sg51
I-89
sg52
I-89
sg53
I-89
sg54
I-89
sg55
I-89
sg56
I-89
ssI296
(dp462
VDO
p463
I-146
sVLBRACE
p464
I-146
sg75
I-146
ssI297
(dp465
VDONE
p466
I327
ssI298
(dp467
g47
I328
ssI299
(dp468
VFI
p469
I329
ssI300
(dp470
g19
I-110
sg20
I-110
sg68
I-110
sg21
I-110
sg22
I-110
sg23
I-110
sg24
I-110
sg25
I-110
sg26
I-110
sg27
I-110
sg28
I-110
sg29
I-110
sg30
I-110
sg31
I-110
sg57
I-110
sg58
I-110
sg39
I-110
sg40
I-110
sg41
I-110
sg42
I-110
sg36
I-110
sg45
I-110
sg46
I-110
sg47
I-110
sg48
I-110
sg49
I-110
sg50
I-110
sg51
I-110
sg52
I-110
sg53
I-110
sg54
I-110
sg55
I-110
sg56
I-110
ssI301
(dp471
VTHEN
p472
I330
ssI302
(dp473
g75
I-146
sg3
I-146
sg4
I-146
sg5
I-146
sg6
I-146
sg7
I-146
sg8
I-146
sg9
I-146
sg10
I-146
sg11
I-146
sg12
I-146
sg13
I-146
sg14
I-146
sg15
I-146
sg16
I-146
sg17
I-146
sg18
I-146
sg19
I-146
sg20
I-146
sg21
I-146
sg22
I-146
sg23
I-146
sg24
I-146
sg25
I-146
sg26
I-146
sg27
I-146
sg28
I-146
sg29
I-146
sg30
I-146
sg31
I-146
ssI303
(dp474
g75
I-146
sg3
I-146
sg4
I-146
sg5
I-146
sg6
I-146
sg7
I-146
sg8
I-146
sg9
I-146
sg10
I-146
sg11
I-146
sg12
I-146
sg13
I-146
sg14
I-146
sg15
I-146
sg16
I-146
sg17
I-146
sg18
I-146
sg19
I-146
sg20
I-146
sg21
I-146
sg22
I-146
sg23
I-146
sg24
I-146
sg25
I-146
sg26
I-146
sg27
I-146
sg28
I-146
sg29
I-146
sg30
I-146
sg31
I-146
ssI304
(dp475
g75
I-146
sg3
I-146
sg4
I-146
sg5
I-146
sg6
I-146
sg7
I-146
sg8
I-146
sg9
I-146
sg10
I-146
sg11
I-146
sg12
I-146
sg13
I-146
sg14
I-146
sg15
I-146
sg16
I-146
sg17
I-146
sg18
I-146
sg19
I-146
sg20
I-146
sg21
I-146
sg22
I-146
sg23
I-146
sg24
I-146
sg25
I-146
sg26
I-146
sg27
I-146
sg28
I-146
sg29
I-146
sg30
I-146
sg31
I-146
ssI305
(dp476
g46
I334
sg390
I306
sg75
I143
ssI306
(dp477
g60
I-6
sg40
I-6
sg390
I-6
sg46
I-6
ssI307
(dp478
g432
I335
sg433
I336
sg75
I143
ssI308
(dp479
g75
I-146
sg3
I-146
sg4
I-146
sg5
I-146
sg6
I-146
sg7
I-146
sg8
I-146
sg9
I-146
sg10
I-146
sg11
I-146
sg12
I-146
sg13
I-146
sg14
I-146
sg15
I-146
sg16
I-146
sg17
I-146
sg18
I-146
sg19
I-146
sg20
I-146
sg21
I-146
sg22
I-146
sg23
I-146
sg24
I-146
sg25
I-146
sg26
I-146
sg27
I-146
sg28
I-146
sg29
I-146
sg30
I-146
sg31
I-146
ssI309
(dp480
g75
I-146
sg3
I-146
sg4
I-146
sg5
I-146
sg6
I-146
sg7
I-146
sg8
I-146
sg9
I-146
sg10
I-146
sg11
I-146
sg12
I-146
sg13
I-146
sg14
I-146
sg15
I-146
sg16
I-146
sg17
I-146
sg18
I-146
sg19
I-146
sg20
I-146
sg21
I-146
sg22
I-146
sg23
I-146
sg24
I-146
sg25
I-146
sg26
I-146
sg27
I-146
sg28
I-146
sg29
I-146
sg30
I-146
sg31
I-146
ssI310
(dp481
g60
I-168
sg40
I-168
sg396
I-168
ssI311
(dp482
g437
I339
sg438
I340
sg75
I143
ssI312
(dp483
g19
I-76
sg20
I-76
sg68
I-76
sg21
I-76
sg22
I-76
sg23
I-76
sg24
I-76
sg25
I-76
sg26
I-76
sg27
I-76
sg28
I-76
sg29
I-76
sg30
I-76
sg31
I-76
sg57
I-76
sg58
I-76
sg39
I-76
sg40
I-76
sg41
I-76
sg42
I-76
sg36
I-76
sg45
I-76
sg46
I-76
sg47
I-76
sg48
I-76
sg49
I-76
sg50
I-76
sg51
I-76
sg52
I-76
sg53
I-76
sg54
I-76
sg55
I-76
sg56
I-76
ssI313
(dp484
g19
I-77
sg20
I-77
sg68
I-77
sg21
I-77
sg22
I-77
sg23
I-77
sg24
I-77
sg25
I-77
sg26
I-77
sg27
I-77
sg28
I-77
sg29
I-77
sg30
I-77
sg31
I-77
sg57
I-77
sg58
I-77
sg39
I-77
sg40
I-77
sg41
I-77
sg42
I-77
sg36
I-77
sg45
I-77
sg46
I-77
sg47
I-77
sg48
I-77
sg49
I-77
sg50
I-77
sg51
I-77
sg52
I-77
sg53
I-77
sg54
I-77
sg55
I-77
sg56
I-77
ssI314
(dp485
g19
I-84
sg20
I-84
sg68
I-84
sg21
I-84
sg22
I-84
sg23
I-84
sg24
I-84
sg25
I-84
sg26
I-84
sg27
I-84
sg28
I-84
sg29
I-84
sg30
I-84
sg31
I-84
sg57
I-84
sg58
I-84
sg39
I-84
sg40
I-84
sg41
I-84
sg42
I-84
sg36
I-84
sg45
I-84
sg46
I-84
sg47
I-84
sg48
I-84
sg49
I-84
sg50
I-84
sg51
I-84
sg52
I-84
sg53
I-84
sg54
I-84
sg55
I-84
sg56
I-84
ssI315
(dp486
g19
I-85
sg20
I-85
sg68
I-85
sg21
I-85
sg22
I-85
sg23
I-85
sg24
I-85
sg25
I-85
sg26
I-85
sg27
I-85
sg28
I-85
sg29
I-85
sg30
I-85
sg31
I-85
sg57
I-85
sg58
I-85
sg39
I-85
sg40
I-85
sg41
I-85
sg42
I-85
sg36
I-85
sg45
I-85
sg46
I-85
sg47
I-85
sg48
I-85
sg49
I-85
sg50
I-85
sg51
I-85
sg52
I-85
sg53
I-85
sg54
I-85
sg55
I-85
sg56
I-85
ssI316
(dp487
g75
I-146
sg3
I-146
sg4
I-146
sg5
I-146
sg6
I-146
sg7
I-146
sg8
I-146
sg9
I-146
sg10
I-146
sg11
I-146
sg12
I-146
sg13
I-146
sg14
I-146
sg15
I-146
sg16
I-146
sg17
I-146
sg18
I-146
sg19
I-146
sg20
I-146
sg21
I-146
sg22
I-146
sg23
I-146
sg24
I-146
sg25
I-146
sg26
I-146
sg27
I-146
sg28
I-146
sg29
I-146
sg30
I-146
sg31
I-146
sg53
I-146
sg54
I-146
sg55
I-146
sg56
I-146
ssI317
(dp488
VWORD
p489
I343
ssI318
(dp490
g46
I344
sg57
I317
ssI319
(dp491
g19
I-95
sg20
I-95
sg68
I-95
sg21
I-95
sg22
I-95
sg23
I-95
sg24
I-95
sg25
I-95
sg26
I-95
sg27
I-95
sg28
I-95
sg29
I-95
sg30
I-95
sg31
I-95
sg57
I-95
sg58
I-95
sg39
I-95
sg40
I-95
sg41
I-95
sg42
I-95
sg36
I-95
sg45
I-95
sg46
I-95
sg47
I-95
sg48
I-95
sg49
I-95
sg50
I-95
sg51
I-95
sg52
I-95
sg53
I-95
sg54
I-95
sg55
I-95
sg56
I-95
ssI320
(dp492
g406
I-124
sg75
I-124
sg15
I-124
sg368
I-124
ssI321
(dp493
g406
I-126
sg75
I-126
sg15
I-126
sg368
I-126
ssI322
(dp494
g406
I-128
sg75
I-128
sg15
I-128
sg368
I-128
ssI323
(dp495
g75
I-146
sg3
I-146
sg4
I-146
sg5
I-146
sg6
I-146
sg7
I-146
sg8
I-146
sg9
I-146
sg10
I-146
sg11
I-146
sg12
I-146
sg13
I-146
sg14
I-146
sg15
I-146
sg16
I-146
sg17
I-146
sg18
I-146
sg19
I-146
sg20
I-146
sg21
I-146
sg22
I-146
sg23
I-146
sg24
I-146
sg25
I-146
sg26
I-146
sg27
I-146
sg28
I-146
sg29
I-146
sg30
I-146
sg31
I-146
sg411
I-146
sg47
I-146
ssI324
(dp496
g75
I-146
sg3
I-146
sg4
I-146
sg5
I-146
sg6
I-146
sg7
I-146
sg8
I-146
sg9
I-146
sg10
I-146
sg11
I-146
sg12
I-146
sg13
I-146
sg14
I-146
sg15
I-146
sg16
I-146
sg17
I-146
sg18
I-146
sg19
I-146
sg20
I-146
sg21
I-146
sg22
I-146
sg23
I-146
sg24
I-146
sg25
I-146
sg26
I-146
sg27
I-146
sg28
I-146
sg29
I-146
sg30
I-146
sg31
I-146
sg411
I-146
sg47
I-146
ssI325
(dp497
g75
I-146
sg3
I-146
sg4
I-146
sg5
I-146
sg6
I-146
sg7
I-146
sg8
I-146
sg9
I-146
sg10
I-146
sg11
I-146
sg12
I-146
sg13
I-146
sg14
I-146
sg15
I-146
sg16
I-146
sg17
I-146
sg18
I-146
sg19
I-146
sg20
I-146
sg21
I-146
sg22
I-146
sg23
I-146
sg24
I-146
sg25
I-146
sg26
I-146
sg27
I-146
sg28
I-146
sg29
I-146
sg30
I-146
sg31
I-146
sg411
I-146
sg47
I-146
ssI326
(dp498
g463
I348
sg464
I349
sg75
I143
ssI327
(dp499
g19
I-90
sg20
I-90
sg68
I-90
sg21
I-90
sg22
I-90
sg23
I-90
sg24
I-90
sg25
I-90
sg26
I-90
sg27
I-90
sg28
I-90
sg29
I-90
sg30
I-90
sg31
I-90
sg57
I-90
sg58
I-90
sg39
I-90
sg40
I-90
sg41
I-90
sg42
I-90
sg36
I-90
sg45
I-90
sg46
I-90
sg47
I-90
sg48
I-90
sg49
I-90
sg50
I-90
sg51
I-90
sg52
I-90
sg53
I-90
sg54
I-90
sg55
I-90
sg56
I-90
ssI328
(dp500
g19
I-91
sg20
I-91
sg68
I-91
sg21
I-91
sg22
I-91
sg23
I-91
sg24
I-91
sg25
I-91
sg26
I-91
sg27
I-91
sg28
I-91
sg29
I-91
sg30
I-91
sg31
I-91
sg57
I-91
sg58
I-91
sg39
I-91
sg40
I-91
sg41
I-91
sg42
I-91
sg36
I-91
sg45
I-91
sg46
I-91
sg47
I-91
sg48
I-91
sg49
I-91
sg50
I-91
sg51
I-91
sg52
I-91
sg53
I-91
sg54
I-91
sg55
I-91
sg56
I-91
ssI329
(dp501
g19
I-109
sg20
I-109
sg68
I-109
sg21
I-109
sg22
I-109
sg23
I-109
sg24
I-109
sg25
I-109
sg26
I-109
sg27
I-109
sg28
I-109
sg29
I-109
sg30
I-109
sg31
I-109
sg57
I-109
sg58
I-109
sg39
I-109
sg40
I-109
sg41
I-109
sg42
I-109
sg36
I-109
sg45
I-109
sg46
I-109
sg47
I-109
sg48
I-109
sg49
I-109
sg50
I-109
sg51
I-109
sg52
I-109
sg53
I-109
sg54
I-109
sg55
I-109
sg56
I-109
ssI330
(dp502
g75
I-146
sg3
I-146
sg4
I-146
sg5
I-146
sg6
I-146
sg7
I-146
sg8
I-146
sg9
I-146
sg10
I-146
sg11
I-146
sg12
I-146
sg13
I-146
sg14
I-146
sg15
I-146
sg16
I-146
sg17
I-146
sg18
I-146
sg19
I-146
sg20
I-146
sg21
I-146
sg22
I-146
sg23
I-146
sg24
I-146
sg25
I-146
sg26
I-146
sg27
I-146
sg28
I-146
sg29
I-146
sg30
I-146
sg31
I-146
ssI331
(dp503
g75
I143
sg3
I8
sg4
I11
sg5
I19
sg6
I20
sg7
I28
sg8
I30
sg9
I31
sg10
I34
sg11
I35
sg12
I37
sg13
I38
sg14
I39
sg15
I29
sg16
I36
sg17
I40
sg18
I41
sg19
I42
sg20
I43
sg21
I44
sg22
I45
sg23
I46
sg24
I47
sg25
I48
sg26
I49
sg27
I50
sg28
I51
sg29
I52
sg30
I53
sg31
I54
ssI332
(dp504
g75
I143
sg3
I8
sg4
I11
sg5
I19
sg6
I20
sg7
I28
sg8
I30
sg9
I31
sg10
I34
sg11
I35
sg12
I37
sg13
I38
sg14
I39
sg15
I29
sg16
I36
sg17
I40
sg18
I41
sg19
I42
sg20
I43
sg21
I44
sg22
I45
sg23
I46
sg24
I47
sg25
I48
sg26
I49
sg27
I50
sg28
I51
sg29
I52
sg30
I53
sg31
I54
ssI333
(dp505
g75
I143
sg3
I8
sg4
I11
sg5
I19
sg6
I20
sg7
I28
sg8
I30
sg9
I31
sg10
I34
sg11
I35
sg12
I37
sg13
I38
sg14
I39
sg15
I29
sg16
I36
sg17
I40
sg18
I41
sg19
I42
sg20
I43
sg21
I44
sg22
I45
sg23
I46
sg24
I47
sg25
I48
sg26
I49
sg27
I50
sg28
I51
sg29
I52
sg30
I53
sg31
I54
ssI334
(dp506
g66
I-173
sg10
I-173
sg19
I-173
sg20
I-173
sg21
I-173
sg22
I-173
sg23
I-173
sg24
I-173
sg25
I-173
sg26
I-173
sg27
I-173
sg28
I-173
sg29
I-173
sg30
I-173
sg31
I-173
sg57
I-173
sg58
I-173
sg39
I-173
sg40
I-173
sg41
I-173
sg42
I-173
sg36
I-173
sg45
I-173
sg46
I-173
sg47
I-173
sg48
I-173
sg49
I-173
sg50
I-173
sg51
I-173
sg52
I-173
sg53
I-173
sg54
I-173
sg55
I-173
sg56
I-173
ssI335
(dp507
g75
I-146
sg3
I-146
sg4
I-146
sg5
I-146
sg6
I-146
sg7
I-146
sg8
I-146
sg9
I-146
sg10
I-146
sg11
I-146
sg12
I-146
sg13
I-146
sg14
I-146
sg15
I-146
sg16
I-146
sg17
I-146
sg18
I-146
sg19
I-146
sg20
I-146
sg21
I-146
sg22
I-146
sg23
I-146
sg24
I-146
sg25
I-146
sg26
I-146
sg27
I-146
sg28
I-146
sg29
I-146
sg30
I-146
sg31
I-146
ssI336
(dp508
g75
I-146
sg3
I-146
sg4
I-146
sg5
I-146
sg6
I-146
sg7
I-146
sg8
I-146
sg9
I-146
sg10
I-146
sg11
I-146
sg12
I-146
sg13
I-146
sg14
I-146
sg15
I-146
sg16
I-146
sg17
I-146
sg18
I-146
sg19
I-146
sg20
I-146
sg21
I-146
sg22
I-146
sg23
I-146
sg24
I-146
sg25
I-146
sg26
I-146
sg27
I-146
sg28
I-146
sg29
I-146
sg30
I-146
sg31
I-146
ssI337
(dp509
VDONE
p510
I354
ssI338
(dp511
g47
I355
ssI339
(dp512
g75
I-146
sg3
I-146
sg4
I-146
sg5
I-146
sg6
I-146
sg7
I-146
sg8
I-146
sg9
I-146
sg10
I-146
sg11
I-146
sg12
I-146
sg13
I-146
sg14
I-146
sg15
I-146
sg16
I-146
sg17
I-146
sg18
I-146
sg19
I-146
sg20
I-146
sg21
I-146
sg22
I-146
sg23
I-146
sg24
I-146
sg25
I-146
sg26
I-146
sg27
I-146
sg28
I-146
sg29
I-146
sg30
I-146
sg31
I-146
ssI340
(dp513
g75
I-146
sg3
I-146
sg4
I-146
sg5
I-146
sg6
I-146
sg7
I-146
sg8
I-146
sg9
I-146
sg10
I-146
sg11
I-146
sg12
I-146
sg13
I-146
sg14
I-146
sg15
I-146
sg16
I-146
sg17
I-146
sg18
I-146
sg19
I-146
sg20
I-146
sg21
I-146
sg22
I-146
sg23
I-146
sg24
I-146
sg25
I-146
sg26
I-146
sg27
I-146
sg28
I-146
sg29
I-146
sg30
I-146
sg31
I-146
ssI341
(dp514
g53
I-120
sg54
I-120
sg55
I-120
sg56
I-120
sg75
I143
sg3
I8
sg4
I11
sg5
I19
sg6
I20
sg7
I28
sg8
I30
sg9
I31
sg10
I34
sg11
I35
sg12
I37
sg13
I38
sg14
I39
sg15
I29
sg16
I36
sg17
I40
sg18
I41
sg19
I42
sg20
I43
sg21
I44
sg22
I45
sg23
I46
sg24
I47
sg25
I48
sg26
I49
sg27
I50
sg28
I51
sg29
I52
sg30
I53
sg31
I54
ssI342
(dp515
g53
I-119
sg54
I-119
sg55
I-119
sg56
I-119
ssI343
(dp516
g46
I-130
sg57
I-130
ssI344
(dp517
g75
I-146
sg3
I-146
sg4
I-146
sg5
I-146
sg6
I-146
sg7
I-146
sg8
I-146
sg9
I-146
sg10
I-146
sg11
I-146
sg12
I-146
sg13
I-146
sg14
I-146
sg15
I-146
sg16
I-146
sg17
I-146
sg18
I-146
sg19
I-146
sg20
I-146
sg21
I-146
sg22
I-146
sg23
I-146
sg24
I-146
sg25
I-146
sg26
I-146
sg27
I-146
sg28
I-146
sg29
I-146
sg30
I-146
sg31
I-146
sg53
I-146
sg54
I-146
sg55
I-146
sg56
I-146
ssI345
(dp518
g411
I-134
sg47
I-134
sg75
I143
sg3
I8
sg4
I11
sg5
I19
sg6
I20
sg7
I28
sg8
I30
sg9
I31
sg10
I34
sg11
I35
sg12
I37
sg13
I38
sg14
I39
sg15
I29
sg16
I36
sg17
I40
sg18
I41
sg19
I42
sg20
I43
sg21
I44
sg22
I45
sg23
I46
sg24
I47
sg25
I48
sg26
I49
sg27
I50
sg28
I51
sg29
I52
sg30
I53
sg31
I54
ssI346
(dp519
g411
I-135
sg47
I-135
sg75
I143
sg3
I8
sg4
I11
sg5
I19
sg6
I20
sg7
I28
sg8
I30
sg9
I31
sg10
I34
sg11
I35
sg12
I37
sg13
I38
sg14
I39
sg15
I29
sg16
I36
sg17
I40
sg18
I41
sg19
I42
sg20
I43
sg21
I44
sg22
I45
sg23
I46
sg24
I47
sg25
I48
sg26
I49
sg27
I50
sg28
I51
sg29
I52
sg30
I53
sg31
I54
ssI347
(dp520
g411
I-136
sg47
I-136
sg75
I143
sg3
I8
sg4
I11
sg5
I19
sg6
I20
sg7
I28
sg8
I30
sg9
I31
sg10
I34
sg11
I35
sg12
I37
sg13
I38
sg14
I39
sg15
I29
sg16
I36
sg17
I40
sg18
I41
sg19
I42
sg20
I43
sg21
I44
sg22
I45
sg23
I46
sg24
I47
sg25
I48
sg26
I49
sg27
I50
sg28
I51
sg29
I52
sg30
I53
sg31
I54
ssI348
(dp521
g75
I-146
sg3
I-146
sg4
I-146
sg5
I-146
sg6
I-146
sg7
I-146
sg8
I-146
sg9
I-146
sg10
I-146
sg11
I-146
sg12
I-146
sg13
I-146
sg14
I-146
sg15
I-146
sg16
I-146
sg17
I-146
sg18
I-146
sg19
I-146
sg20
I-146
sg21
I-146
sg22
I-146
sg23
I-146
sg24
I-146
sg25
I-146
sg26
I-146
sg27
I-146
sg28
I-146
sg29
I-146
sg30
I-146
sg31
I-146
ssI349
(dp522
g75
I-146
sg3
I-146
sg4
I-146
sg5
I-146
sg6
I-146
sg7
I-146
sg8
I-146
sg9
I-146
sg10
I-146
sg11
I-146
sg12
I-146
sg13
I-146
sg14
I-146
sg15
I-146
sg16
I-146
sg17
I-146
sg18
I-146
sg19
I-146
sg20
I-146
sg21
I-146
sg22
I-146
sg23
I-146
sg24
I-146
sg25
I-146
sg26
I-146
sg27
I-146
sg28
I-146
sg29
I-146
sg30
I-146
sg31
I-146
ssI350
(dp523
g419
I-114
sVELSE
p524
I362
sg52
I264
ssI351
(dp525
g66
I-169
sg10
I-169
sg19
I-169
sg20
I-169
sg21
I-169
sg22
I-169
sg23
I-169
sg24
I-169
sg25
I-169
sg26
I-169
sg27
I-169
sg28
I-169
sg29
I-169
sg30
I-169
sg31
I-169
sg57
I-169
sg58
I-169
sg39
I-169
sg40
I-169
sg41
I-169
sg42
I-169
sg36
I-169
sg45
I-169
sg46
I-169
sg47
I-169
sg48
I-169
sg49
I-169
sg50
I-169
sg51
I-169
sg52
I-169
sg53
I-169
sg54
I-169
sg55
I-169
sg56
I-169
ssI352
(dp526
VDONE
p527
I364
ssI353
(dp528
g47
I365
ssI354
(dp529
g19
I-82
sg20
I-82
sg68
I-82
sg21
I-82
sg22
I-82
sg23
I-82
sg24
I-82
sg25
I-82
sg26
I-82
sg27
I-82
sg28
I-82
sg29
I-82
sg30
I-82
sg31
I-82
sg57
I-82
sg58
I-82
sg39
I-82
sg40
I-82
sg41
I-82
sg42
I-82
sg36
I-82
sg45
I-82
sg46
I-82
sg47
I-82
sg48
I-82
sg49
I-82
sg50
I-82
sg51
I-82
sg52
I-82
sg53
I-82
sg54
I-82
sg55
I-82
sg56
I-82
ssI355
(dp530
g19
I-83
sg20
I-83
sg68
I-83
sg21
I-83
sg22
I-83
sg23
I-83
sg24
I-83
sg25
I-83
sg26
I-83
sg27
I-83
sg28
I-83
sg29
I-83
sg30
I-83
sg31
I-83
sg57
I-83
sg58
I-83
sg39
I-83
sg40
I-83
sg41
I-83
sg42
I-83
sg36
I-83
sg45
I-83
sg46
I-83
sg47
I-83
sg48
I-83
sg49
I-83
sg50
I-83
sg51
I-83
sg52
I-83
sg53
I-83
sg54
I-83
sg55
I-83
sg56
I-83
ssI356
(dp531
VDONE
p532
I366
ssI357
(dp533
g47
I367
ssI358
(dp534
g53
I-122
sg54
I-122
sg55
I-122
sg56
I-122
sg75
I143
sg3
I8
sg4
I11
sg5
I19
sg6
I20
sg7
I28
sg8
I30
sg9
I31
sg10
I34
sg11
I35
sg12
I37
sg13
I38
sg14
I39
sg15
I29
sg16
I36
sg17
I40
sg18
I41
sg19
I42
sg20
I43
sg21
I44
sg22
I45
sg23
I46
sg24
I47
sg25
I48
sg26
I49
sg27
I50
sg28
I51
sg29
I52
sg30
I53
sg31
I54
ssI359
(dp535
g53
I-121
sg54
I-121
sg55
I-121
sg56
I-121
ssI360
(dp536
VDONE
p537
I368
ssI361
(dp538
g47
I369
ssI362
(dp539
g75
I-146
sg3
I-146
sg4
I-146
sg5
I-146
sg6
I-146
sg7
I-146
sg8
I-146
sg9
I-146
sg10
I-146
sg11
I-146
sg12
I-146
sg13
I-146
sg14
I-146
sg15
I-146
sg16
I-146
sg17
I-146
sg18
I-146
sg19
I-146
sg20
I-146
sg21
I-146
sg22
I-146
sg23
I-146
sg24
I-146
sg25
I-146
sg26
I-146
sg27
I-146
sg28
I-146
sg29
I-146
sg30
I-146
sg31
I-146
ssI363
(dp540
g419
I-116
ssI364
(dp541
g19
I-78
sg20
I-78
sg68
I-78
sg21
I-78
sg22
I-78
sg23
I-78
sg24
I-78
sg25
I-78
sg26
I-78
sg27
I-78
sg28
I-78
sg29
I-78
sg30
I-78
sg31
I-78
sg57
I-78
sg58
I-78
sg39
I-78
sg40
I-78
sg41
I-78
sg42
I-78
sg36
I-78
sg45
I-78
sg46
I-78
sg47
I-78
sg48
I-78
sg49
I-78
sg50
I-78
sg51
I-78
sg52
I-78
sg53
I-78
sg54
I-78
sg55
I-78
sg56
I-78
ssI365
(dp542
g19
I-79
sg20
I-79
sg68
I-79
sg21
I-79
sg22
I-79
sg23
I-79
sg24
I-79
sg25
I-79
sg26
I-79
sg27
I-79
sg28
I-79
sg29
I-79
sg30
I-79
sg31
I-79
sg57
I-79
sg58
I-79
sg39
I-79
sg40
I-79
sg41
I-79
sg42
I-79
sg36
I-79
sg45
I-79
sg46
I-79
sg47
I-79
sg48
I-79
sg49
I-79
sg50
I-79
sg51
I-79
sg52
I-79
sg53
I-79
sg54
I-79
sg55
I-79
sg56
I-79
ssI366
(dp543
g19
I-80
sg20
I-80
sg68
I-80
sg21
I-80
sg22
I-80
sg23
I-80
sg24
I-80
sg25
I-80
sg26
I-80
sg27
I-80
sg28
I-80
sg29
I-80
sg30
I-80
sg31
I-80
sg57
I-80
sg58
I-80
sg39
I-80
sg40
I-80
sg41
I-80
sg42
I-80
sg36
I-80
sg45
I-80
sg46
I-80
sg47
I-80
sg48
I-80
sg49
I-80
sg50
I-80
sg51
I-80
sg52
I-80
sg53
I-80
sg54
I-80
sg55
I-80
sg56
I-80
ssI367
(dp544
g19
I-81
sg20
I-81
sg68
I-81
sg21
I-81
sg22
I-81
sg23
I-81
sg24
I-81
sg25
I-81
sg26
I-81
sg27
I-81
sg28
I-81
sg29
I-81
sg30
I-81
sg31
I-81
sg57
I-81
sg58
I-81
sg39
I-81
sg40
I-81
sg41
I-81
sg42
I-81
sg36
I-81
sg45
I-81
sg46
I-81
sg47
I-81
sg48
I-81
sg49
I-81
sg50
I-81
sg51
I-81
sg52
I-81
sg53
I-81
sg54
I-81
sg55
I-81
sg56
I-81
ssI368
(dp545
g19
I-92
sg20
I-92
sg68
I-92
sg21
I-92
sg22
I-92
sg23
I-92
sg24
I-92
sg25
I-92
sg26
I-92
sg27
I-92
sg28
I-92
sg29
I-92
sg30
I-92
sg31
I-92
sg57
I-92
sg58
I-92
sg39
I-92
sg40
I-92
sg41
I-92
sg42
I-92
sg36
I-92
sg45
I-92
sg46
I-92
sg47
I-92
sg48
I-92
sg49
I-92
sg50
I-92
sg51
I-92
sg52
I-92
sg53
I-92
sg54
I-92
sg55
I-92
sg56
I-92
ssI369
(dp546
g19
I-93
sg20
I-93
sg68
I-93
sg21
I-93
sg22
I-93
sg23
I-93
sg24
I-93
sg25
I-93
sg26
I-93
sg27
I-93
sg28
I-93
sg29
I-93
sg30
I-93
sg31
I-93
sg57
I-93
sg58
I-93
sg39
I-93
sg40
I-93
sg41
I-93
sg42
I-93
sg36
I-93
sg45
I-93
sg46
I-93
sg47
I-93
sg48
I-93
sg49
I-93
sg50
I-93
sg51
I-93
sg52
I-93
sg53
I-93
sg54
I-93
sg55
I-93
sg56
I-93
ssI370
(dp547
g419
I-115
ss.(dp0
I0
(dp1
Vinputunit_list
p2
I1
sVinputunit
p3
I2
sVsimple_list
p4
I3
sVsimple_list1
p5
I5
sVpipeline_command
p6
I6
sVpipeline
p7
I7
sVtimespec
p8
I9
sVcommand
p9
I10
sVsimple_command
p10
I12
sVshell_command
p11
I13
sVfunction_def
p12
I14
sVcoproc
p13
I15
sVsimple_command_element
p14
I16
sVfor_command
p15
I17
sVcase_command
p16
I18
sVselect_command
p17
I21
sVif_command
p18
I22
sVsubshell
p19
I23
sVgroup_command
p20
I24
sVarith_command
p21
I25
sVcond_command
p22
I26
sVarith_for_command
p23
I27
sVassignment_word
p24
I32
sVredirection
p25
I33
ssI1
(dp26
Vinputunit
p27
I55
sg4
I3
sg5
I5
sg6
I6
sg7
I7
sg8
I9
sg9
I10
sg10
I12
sg11
I13
sg12
I14
sg13
I15
sg14
I16
sg15
I17
sg16
I18
sg17
I21
sg18
I22
sg19
I23
sg20
I24
sg21
I25
sg22
I26
sg23
I27
sg24
I32
sg25
I33
ssI2
(dp28
sI3
(dp29
Vsimple_list_terminator
p30
I56
ssI4
(dp31
sI5
(dp32
sI6
(dp33
sI7
(dp34
sI8
(dp35
Vpipeline_command
p36
I64
sVlist_terminator
p37
I65
sg7
I7
sg8
I9
sg9
I10
sg10
I12
sg11
I13
sg12
I14
sg13
I15
sg14
I16
sg15
I17
sg16
I18
sg17
I21
sg18
I22
sg19
I23
sg20
I24
sg21
I25
sg22
I26
sg23
I27
sg24
I32
sg25
I33
ssI9
(dp38
g8
I9
sVpipeline_command
p39
I68
sVlist_terminator
p40
I69
sg7
I7
sg9
I10
sg10
I12
sg11
I13
sg12
I14
sg13
I15
sg14
I16
sg15
I17
sg16
I18
sg17
I21
sg18
I22
sg19
I23
sg20
I24
sg21
I25
sg22
I26
sg23
I27
sg24
I32
sg25
I33
ssI10
(dp41
sI11
(dp42
sI12
(dp43
Vcurly_on
p44
I71
sVcurly_off
p45
I72
ssI13
(dp46
Vredirection_list
p47
I73
sVredirection
p48
I74
ssI14
(dp49
sI15
(dp50
sI16
(dp51
sI17
(dp52
sI18
(dp53
sI19
(dp54
Vcompound_list
p55
I76
sVlist
p56
I77
sVnewline_list
p57
I78
ssI20
(dp58
Vcompound_list
p59
I79
sg56
I77
sg57
I78
ssI21
(dp60
sI22
(dp61
sI23
(dp62
sI24
(dp63
sI25
(dp64
sI26
(dp65
sI27
(dp66
sI28
(dp67
sI29
(dp68
Vcompound_list
p69
I82
sg56
I77
sg57
I78
ssI30
(dp70
sI31
(dp71
Vshell_command
p72
I84
sVsimple_command
p73
I86
sg15
I17
sg16
I18
sg17
I21
sg18
I22
sg19
I23
sg20
I24
sg21
I25
sg22
I26
sg23
I27
sg14
I16
sg24
I32
sg25
I33
ssI32
(dp74
sI33
(dp75
sI34
(dp76
sI35
(dp77
sI36
(dp78
Vcompound_list
p79
I99
sg56
I77
sg57
I78
ssI37
(dp80
sI38
(dp81
sI39
(dp82
Vcompound_list
p83
I102
sg56
I77
sg57
I78
ssI40
(dp84
sI41
(dp85
sI42
(dp86
sI43
(dp87
sI44
(dp88
sI45
(dp89
sI46
(dp90
sI47
(dp91
sI48
(dp92
sI49
(dp93
sI50
(dp94
sI51
(dp95
sI52
(dp96
sI53
(dp97
sI54
(dp98
sI55
(dp99
sI56
(dp100
sI57
(dp101
sI58
(dp102
Vsimple_list1
p103
I130
sg6
I6
sg7
I7
sg8
I9
sg9
I10
sg10
I12
sg11
I13
sg12
I14
sg13
I15
sg14
I16
sg15
I17
sg16
I18
sg17
I21
sg18
I22
sg19
I23
sg20
I24
sg21
I25
sg22
I26
sg23
I27
sg24
I32
sg25
I33
ssI59
(dp104
Vsimple_list1
p105
I131
sg6
I6
sg7
I7
sg8
I9
sg9
I10
sg10
I12
sg11
I13
sg12
I14
sg13
I15
sg14
I16
sg15
I17
sg16
I18
sg17
I21
sg18
I22
sg19
I23
sg20
I24
sg21
I25
sg22
I26
sg23
I27
sg24
I32
sg25
I33
ssI60
(dp106
Vnewline_list
p107
I132
ssI61
(dp108
Vnewline_list
p109
I133
ssI62
(dp110
Vnewline_list
p111
I134
ssI63
(dp112
Vnewline_list
p113
I135
ssI64
(dp114
sI65
(dp115
sI66
(dp116
sI67
(dp117
sI68
(dp118
sI69
(dp119
sI70
(dp120
sI71
(dp121
sI72
(dp122
Vsimple_command_element
p123
I137
sg24
I32
sg25
I33
ssI73
(dp124
Vredirection
p125
I139
ssI74
(dp126
sI75
(dp127
sI76
(dp128
sI77
(dp129
sI78
(dp130
Vlist1
p131
I141
sVlist0
p132
I142
sVpipeline_command
p133
I144
sg7
I7
sg8
I9
sg9
I10
sg10
I12
sg11
I13
sg12
I14
sg13
I15
sg14
I16
sg15
I17
sg16
I18
sg17
I21
sg18
I22
sg19
I23
sg20
I24
sg21
I25
sg22
I26
sg23
I27
sg24
I32
sg25
I33
ssI79
(dp134
sI80
(dp135
sI81
(dp136
Vassignment_off
p137
I147
ssI82
(dp138
sI83
(dp139
Vnewline_list
p140
I151
ssI84
(dp141
Vredirection_list
p142
I152
sg48
I74
ssI85
(dp143
Vshell_command
p144
I153
sg15
I17
sg16
I18
sg17
I21
sg18
I22
sg19
I23
sg20
I24
sg21
I25
sg22
I26
sg23
I27
ssI86
(dp145
g45
I72
ssI87
(dp146
sI88
(dp147
sI89
(dp148
sI90
(dp149
sI91
(dp150
sI92
(dp151
sI93
(dp152
sI94
(dp153
sI95
(dp154
sI96
(dp155
sI97
(dp156
Vnewline_list
p157
I168
ssI98
(dp158
Vlist_terminator
p159
I170
ssI99
(dp160
sI100
(dp161
Vnewline_list
p162
I174
ssI101
(dp163
Vnewline_list
p164
I175
ssI102
(dp165
sI103
(dp166
sI104
(dp167
sI105
(dp168
sI106
(dp169
sI107
(dp170
sI108
(dp171
sI109
(dp172
sI110
(dp173
sI111
(dp174
sI112
(dp175
sI113
(dp176
sI114
(dp177
sI115
(dp178
sI116
(dp179
sI117
(dp180
sI118
(dp181
sI119
(dp182
sI120
(dp183
sI121
(dp184
sI122
(dp185
sI123
(dp186
sI124
(dp187
sI125
(dp188
sI126
(dp189
sI127
(dp190
sI128
(dp191
sI129
(dp192
sI130
(dp193
sI131
(dp194
sI132
(dp195
Vsimple_list1
p196
I195
sg6
I6
sg7
I7
sg8
I9
sg9
I10
sg10
I12
sg11
I13
sg12
I14
sg13
I15
sg14
I16
sg15
I17
sg16
I18
sg17
I21
sg18
I22
sg19
I23
sg20
I24
sg21
I25
sg22
I26
sg23
I27
sg24
I32
sg25
I33
ssI133
(dp197
Vsimple_list1
p198
I196
sg6
I6
sg7
I7
sg8
I9
sg9
I10
sg10
I12
sg11
I13
sg12
I14
sg13
I15
sg14
I16
sg15
I17
sg16
I18
sg17
I21
sg18
I22
sg19
I23
sg20
I24
sg21
I25
sg22
I26
sg23
I27
sg24
I32
sg25
I33
ssI134
(dp199
Vpipeline
p200
I197
sg9
I10
sg10
I12
sg11
I13
sg12
I14
sg13
I15
sg14
I16
sg15
I17
sg16
I18
sg17
I21
sg18
I22
sg19
I23
sg20
I24
sg21
I25
sg22
I26
sg23
I27
sg24
I32
sg25
I33
ssI135
(dp201
Vpipeline
p202
I198
sg9
I10
sg10
I12
sg11
I13
sg12
I14
sg13
I15
sg14
I16
sg15
I17
sg16
I18
sg17
I21
sg18
I22
sg19
I23
sg20
I24
sg21
I25
sg22
I26
sg23
I27
sg24
I32
sg25
I33
ssI136
(dp203
sI137
(dp204
sI138
(dp205
sI139
(dp206
sI140
(dp207
g55
I199
sg56
I77
sg57
I78
ssI141
(dp208
sI142
(dp209
sI143
(dp210
sI144
(dp211
sI145
(dp212
g59
I205
sg56
I77
sg57
I78
ssI146
(dp213
Vnewline_list
p214
I206
ssI147
(dp215
sI148
(dp216
sI149
(dp217
sI150
(dp218
sI151
(dp219
Vfunction_body
p220
I210
sVshell_command
p221
I211
sg15
I17
sg16
I18
sg17
I21
sg18
I22
sg19
I23
sg20
I24
sg21
I25
sg22
I26
sg23
I27
ssI152
(dp222
g125
I139
ssI153
(dp223
Vredirection_list
p224
I212
sg48
I74
ssI154
(dp225
sI155
(dp226
sI156
(dp227
sI157
(dp228
sI158
(dp229
sI159
(dp230
sI160
(dp231
sI161
(dp232
sI162
(dp233
sI163
(dp234
sI164
(dp235
sI165
(dp236
sI166
(dp237
sI167
(dp238
sI168
(dp239
sI169
(dp240
Vnewline_list
p241
I216
ssI170
(dp242
Vnewline_list
p243
I217
ssI171
(dp244
Vcompound_list
p245
I218
sg56
I77
sg57
I78
ssI172
(dp246
Vcompound_list
p247
I219
sg56
I77
sg57
I78
ssI173
(dp248
sI174
(dp249
sI175
(dp250
sI176
(dp251
Vnewline_list
p252
I224
ssI177
(dp253
g83
I225
sg56
I77
sg57
I78
ssI178
(dp254
sI179
(dp255
sI180
(dp256
sI181
(dp257
sI182
(dp258
sI183
(dp259
sI184
(dp260
sI185
(dp261
sI186
(dp262
sI187
(dp263
sI188
(dp264
sI189
(dp265
sI190
(dp266
sI191
(dp267
sI192
(dp268
sI193
(dp269
Vsimple_list1
p270
I130
sg6
I6
sg7
I7
sg8
I9
sg9
I10
sg10
I12
sg11
I13
sg12
I14
sg13
I15
sg14
I16
sg15
I17
sg16
I18
sg17
I21
sg18
I22
sg19
I23
sg20
I24
sg21
I25
sg22
I26
sg23
I27
sg24
I32
sg25
I33
ssI194
(dp271
Vsimple_list1
p272
I131
sg6
I6
sg7
I7
sg8
I9
sg9
I10
sg10
I12
sg11
I13
sg12
I14
sg13
I15
sg14
I16
sg15
I17
sg16
I18
sg17
I21
sg18
I22
sg19
I23
sg20
I24
sg21
I25
sg22
I26
sg23
I27
sg24
I32
sg25
I33
ssI195
(dp273
sI196
(dp274
sI197
(dp275
sI198
(dp276
sI199
(dp277
sI200
(dp278
Vnewline_list
p279
I227
ssI201
(dp280
Vnewline_list
p281
I228
ssI202
(dp282
Vnewline_list
p283
I229
ssI203
(dp284
Vnewline_list
p285
I230
ssI204
(dp286
Vnewline_list
p287
I231
ssI205
(dp288
sI206
(dp289
Vfunction_body
p290
I233
sg221
I211
sg15
I17
sg16
I18
sg17
I21
sg18
I22
sg19
I23
sg20
I24
sg21
I25
sg22
I26
sg23
I27
ssI207
(dp291
Vassignment_on
p292
I234
ssI208
(dp293
Vnewline_list
p294
I235
ssI209
(dp295
g140
I236
ssI210
(dp296
sI211
(dp297
Vredirection_list
p298
I237
sg48
I74
ssI212
(dp299
g125
I139
ssI213
(dp300
g157
I78
sVcompound_list
p301
I238
sg56
I77
ssI214
(dp302
Vnewline_list
p303
I78
sVcompound_list
p304
I239
sg56
I77
ssI215
(dp305
Vword_list
p306
I241
sVlist_terminator
p307
I242
sVnumber_list
p308
I243
ssI216
(dp309
sI217
(dp310
sI218
(dp311
sI219
(dp312
sI220
(dp313
g162
I251
sVcase_clause_sequence
p314
I252
sVcase_clause
p315
I253
sVpattern_list
p316
I254
ssI221
(dp317
g164
I255
sVlist
p318
I256
ssI222
(dp319
Vnewline_list
p320
I255
sVlist
p321
I257
ssI223
(dp322
Vword_list
p323
I258
ssI224
(dp324
sI225
(dp325
Velif_clause
p326
I263
ssI226
(dp327
sI227
(dp328
Vlist1
p329
I265
sg133
I144
sg7
I7
sg8
I9
sg9
I10
sg10
I12
sg11
I13
sg12
I14
sg13
I15
sg14
I16
sg15
I17
sg16
I18
sg17
I21
sg18
I22
sg19
I23
sg20
I24
sg21
I25
sg22
I26
sg23
I27
sg24
I32
sg25
I33
ssI228
(dp330
Vlist1
p331
I266
sg133
I144
sg7
I7
sg8
I9
sg9
I10
sg10
I12
sg11
I13
sg12
I14
sg13
I15
sg14
I16
sg15
I17
sg16
I18
sg17
I21
sg18
I22
sg19
I23
sg20
I24
sg21
I25
sg22
I26
sg23
I27
sg24
I32
sg25
I33
ssI229
(dp332
Vlist1
p333
I267
sg133
I144
sg7
I7
sg8
I9
sg9
I10
sg10
I12
sg11
I13
sg12
I14
sg13
I15
sg14
I16
sg15
I17
sg16
I18
sg17
I21
sg18
I22
sg19
I23
sg20
I24
sg21
I25
sg22
I26
sg23
I27
sg24
I32
sg25
I33
ssI230
(dp334
Vlist1
p335
I268
sg133
I144
sg7
I7
sg8
I9
sg9
I10
sg10
I12
sg11
I13
sg12
I14
sg13
I15
sg14
I16
sg15
I17
sg16
I18
sg17
I21
sg18
I22
sg19
I23
sg20
I24
sg21
I25
sg22
I26
sg23
I27
sg24
I32
sg25
I33
ssI231
(dp336
Vlist1
p337
I269
sg133
I144
sg7
I7
sg8
I9
sg9
I10
sg10
I12
sg11
I13
sg12
I14
sg13
I15
sg14
I16
sg15
I17
sg16
I18
sg17
I21
sg18
I22
sg19
I23
sg20
I24
sg21
I25
sg22
I26
sg23
I27
sg24
I32
sg25
I33
ssI232
(dp338
sI233
(dp339
sI234
(dp340
sI235
(dp341
Vword_list
p342
I270
ssI236
(dp343
Vfunction_body
p344
I271
sg221
I211
sg15
I17
sg16
I18
sg17
I21
sg18
I22
sg19
I23
sg20
I24
sg21
I25
sg22
I26
sg23
I27
ssI237
(dp345
g125
I139
ssI238
(dp346
sI239
(dp347
sI240
(dp348
sI241
(dp349
Vnewline_list
p350
I274
sg307
I275
ssI242
(dp351
Vnewline_list
p352
I276
ssI243
(dp353
Vnewline_list
p354
I277
sVlist_terminator
p355
I278
ssI244
(dp356
sI245
(dp357
g241
I78
sVcompound_list
p358
I279
sg56
I77
ssI246
(dp359
Vnewline_list
p360
I78
sVcompound_list
p361
I280
sg56
I77
ssI247
(dp362
g243
I78
sVcompound_list
p363
I281
sg56
I77
ssI248
(dp364
Vnewline_list
p365
I78
sVcompound_list
p366
I282
sg56
I77
ssI249
(dp367
sI250
(dp368
sI251
(dp369
Vpattern
p370
I285
ssI252
(dp371
Vnewline_list
p372
I287
sVpattern_list
p373
I288
ssI253
(dp374
sI254
(dp375
sI255
(dp376
g132
I142
sVlist1
p377
I293
sg133
I144
sg7
I7
sg8
I9
sg9
I10
sg10
I12
sg11
I13
sg12
I14
sg13
I15
sg14
I16
sg15
I17
sg16
I18
sg17
I21
sg18
I22
sg19
I23
sg20
I24
sg21
I25
sg22
I26
sg23
I27
sg24
I32
sg25
I33
ssI256
(dp378
sI257
(dp379
sI258
(dp380
Vnewline_list
p381
I274
sVlist_terminator
p382
I296
ssI259
(dp383
g252
I255
sVlist
p384
I297
ssI260
(dp385
Vnewline_list
p386
I255
sVlist
p387
I298
ssI261
(dp388
sI262
(dp389
Vcompound_list
p390
I299
sg56
I77
sg57
I78
ssI263
(dp391
sI264
(dp392
Vcompound_list
p393
I301
sg56
I77
sg57
I78
ssI265
(dp394
sI266
(dp395
sI267
(dp396
sI268
(dp397
sI269
(dp398
sI270
(dp399
g294
I305
ssI271
(dp400
sI272
(dp401
sI273
(dp402
sI274
(dp403
sI275
(dp404
g350
I307
ssI276
(dp405
sI277
(dp406
sI278
(dp407
g354
I311
ssI279
(dp408
sI280
(dp409
sI281
(dp410
sI282
(dp411
sI283
(dp412
sI284
(dp413
sI285
(dp414
sI286
(dp415
Vpattern
p416
I318
ssI287
(dp417
g370
I285
ssI288
(dp418
sI289
(dp419
sI290
(dp420
sI291
(dp421
sI292
(dp422
sI293
(dp423
sI294
(dp424
sI295
(dp425
sI296
(dp426
g381
I326
ssI297
(dp427
sI298
(dp428
sI299
(dp429
sI300
(dp430
sI301
(dp431
sI302
(dp432
g283
I331
ssI303
(dp433
g285
I332
ssI304
(dp434
g287
I333
ssI305
(dp435
sI306
(dp436
sI307
(dp437
sI308
(dp438
g352
I78
sVcompound_list
p439
I337
sg56
I77
ssI309
(dp440
Vnewline_list
p441
I78
sVcompound_list
p442
I338
sg56
I77
ssI310
(dp443
sI311
(dp444
sI312
(dp445
sI313
(dp446
sI314
(dp447
sI315
(dp448
sI316
(dp449
Vnewline_list
p450
I341
sVcompound_list
p451
I342
sg56
I77
ssI317
(dp452
sI318
(dp453
sI319
(dp454
sI320
(dp455
sI321
(dp456
sI322
(dp457
sI323
(dp458
Vnewline_list
p459
I345
ssI324
(dp460
Vnewline_list
p461
I346
ssI325
(dp462
Vnewline_list
p463
I347
ssI326
(dp464
sI327
(dp465
sI328
(dp466
sI329
(dp467
sI330
(dp468
g393
I350
sg56
I77
sg57
I78
ssI331
(dp469
g333
I267
sg133
I144
sg7
I7
sg8
I9
sg9
I10
sg10
I12
sg11
I13
sg12
I14
sg13
I15
sg14
I16
sg15
I17
sg16
I18
sg17
I21
sg18
I22
sg19
I23
sg20
I24
sg21
I25
sg22
I26
sg23
I27
sg24
I32
sg25
I33
ssI332
(dp470
g335
I268
sg133
I144
sg7
I7
sg8
I9
sg9
I10
sg10
I12
sg11
I13
sg12
I14
sg13
I15
sg14
I16
sg15
I17
sg16
I18
sg17
I21
sg18
I22
sg19
I23
sg20
I24
sg21
I25
sg22
I26
sg23
I27
sg24
I32
sg25
I33
ssI333
(dp471
g337
I269
sg133
I144
sg7
I7
sg8
I9
sg9
I10
sg10
I12
sg11
I13
sg12
I14
sg13
I15
sg14
I16
sg15
I17
sg16
I18
sg17
I21
sg18
I22
sg19
I23
sg20
I24
sg21
I25
sg22
I26
sg23
I27
sg24
I32
sg25
I33
ssI334
(dp472
Vassignment_on
p473
I351
ssI335
(dp474
g350
I78
sVcompound_list
p475
I352
sg56
I77
ssI336
(dp476
Vnewline_list
p477
I78
sVcompound_list
p478
I353
sg56
I77
ssI337
(dp479
sI338
(dp480
sI339
(dp481
g354
I78
sVcompound_list
p482
I356
sg56
I77
ssI340
(dp483
Vnewline_list
p484
I78
sVcompound_list
p485
I357
sg56
I77
ssI341
(dp486
g131
I141
sg132
I142
sg133
I144
sg7
I7
sg8
I9
sg9
I10
sg10
I12
sg11
I13
sg12
I14
sg13
I15
sg14
I16
sg15
I17
sg16
I18
sg17
I21
sg18
I22
sg19
I23
sg20
I24
sg21
I25
sg22
I26
sg23
I27
sg24
I32
sg25
I33
ssI342
(dp487
sI343
(dp488
sI344
(dp489
Vnewline_list
p490
I358
sVcompound_list
p491
I359
sg56
I77
ssI345
(dp492
g377
I269
sg133
I144
sg7
I7
sg8
I9
sg9
I10
sg10
I12
sg11
I13
sg12
I14
sg13
I15
sg14
I16
sg15
I17
sg16
I18
sg17
I21
sg18
I22
sg19
I23
sg20
I24
sg21
I25
sg22
I26
sg23
I27
sg24
I32
sg25
I33
ssI346
(dp493
Vlist1
p494
I267
sg133
I144
sg7
I7
sg8
I9
sg9
I10
sg10
I12
sg11
I13
sg12
I14
sg13
I15
sg14
I16
sg15
I17
sg16
I18
sg17
I21
sg18
I22
sg19
I23
sg20
I24
sg21
I25
sg22
I26
sg23
I27
sg24
I32
sg25
I33
ssI347
(dp495
Vlist1
p496
I268
sg133
I144
sg7
I7
sg8
I9
sg9
I10
sg10
I12
sg11
I13
sg12
I14
sg13
I15
sg14
I16
sg15
I17
sg16
I18
sg17
I21
sg18
I22
sg19
I23
sg20
I24
sg21
I25
sg22
I26
sg23
I27
sg24
I32
sg25
I33
ssI348
(dp497
g381
I255
sVlist
p498
I360
ssI349
(dp499
Vnewline_list
p500
I255
sVlist
p501
I361
ssI350
(dp502
Velif_clause
p503
I363
ssI351
(dp504
sI352
(dp505
sI353
(dp506
sI354
(dp507
sI355
(dp508
sI356
(dp509
sI357
(dp510
sI358
(dp511
g131
I141
sg132
I142
sg133
I144
sg7
I7
sg8
I9
sg9
I10
sg10
I12
sg11
I13
sg12
I14
sg13
I15
sg14
I16
sg15
I17
sg16
I18
sg17
I21
sg18
I22
sg19
I23
sg20
I24
sg21
I25
sg22
I26
sg23
I27
sg24
I32
sg25
I33
ssI359
(dp512
sI360
(dp513
sI361
(dp514
sI362
(dp515
Vcompound_list
p516
I370
sg56
I77
sg57
I78
ssI363
(dp517
sI364
(dp518
sI365
(dp519
sI366
(dp520
sI367
(dp521
sI368
(dp522
sI369
(dp523
sI370
(dp524
s.(lp0
(VS' -> inputunit_list
p1
VS'
p2
I1
NNNtp3
a(Vinputunit_list -> inputunit
p4
Vinputunit_list
p5
I1
Vp_inputunit_list
p6
Vbash.py
p7
I99
tp8
a(Vinputunit_list -> inputunit_list inputunit
p9
g5
I2
g6
Vbash.py
p10
I100
tp11
a(Vinputunit -> simple_list simple_list_terminator
p12
Vinputunit
p13
I2
Vp_inputunit
p14
Vbash.py
p15
I108
tp16
a(Vinputunit -> NEWLINE
p17
g13
I1
g14
Vbash.py
p18
I109
tp19
a(Vword_list -> WORD
p20
Vword_list
p21
I1
Vp_word_list_word
p22
Vbash.py
p23
I117
tp24
a(Vword_list -> word_list newline_list WORD
p25
Vword_list
p26
I3
Vp_word_list_list
p27
Vbash.py
p28
I125
tp29
a(Vredirection -> > WORD
p30
Vredirection
p31
I2
Vp_redirection
p32
Vbash.py
p33
I133
tp34
a(Vredirection -> < WORD
p35
g31
I2
g32
Vbash.py
p36
I134
tp37
a(Vredirection -> NUMBER > WORD
p38
g31
I3
g32
Vbash.py
p39
I135
tp40
a(Vredirection -> NUMBER < WORD
p41
g31
I3
g32
Vbash.py
p42
I136
tp43
a(Vredirection -> REDIR_WORD > WORD
p44
g31
I3
g32
Vbash.py
p45
I137
tp46
a(Vredirection -> REDIR_WORD < WORD
p47
g31
I3
g32
Vbash.py
p48
I138
tp49
a(Vredirection -> GREATER_GREATER WORD
p50
g31
I2
g32
Vbash.py
p51
I139
tp52
a(Vredirection -> NUMBER GREATER_GREATER WORD
p53
g31
I3
g32
Vbash.py
p54
I140
tp55
a(Vredirection -> REDIR_WORD GREATER_GREATER WORD
p56
g31
I3
g32
Vbash.py
p57
I141
tp58
a(Vredirection -> GREATER_BAR WORD
p59
g31
I2
g32
Vbash.py
p60
I142
tp61
a(Vredirection -> NUMBER GREATER_BAR WORD
p62
g31
I3
g32
Vbash.py
p63
I143
tp64
a(Vredirection -> REDIR_WORD GREATER_BAR WORD
p65
g31
I3
g32
Vbash.py
p66
I144
tp67
a(Vredirection -> LESS_GREATER WORD
p68
g31
I2
g32
Vbash.py
p69
I145
tp70
a(Vredirection -> NUMBER LESS_GREATER WORD
p71
g31
I3
g32
Vbash.py
p72
I146
tp73
a(Vredirection -> REDIR_WORD LESS_GREATER WORD
p74
g31
I3
g32
Vbash.py
p75
I147
tp76
a(Vredirection -> LESS_LESS WORD
p77
g31
I2
g32
Vbash.py
p78
I148
tp79
a(Vredirection -> NUMBER LESS_LESS WORD
p80
g31
I3
g32
Vbash.py
p81
I149
tp82
a(Vredirection -> REDIR_WORD LESS_LESS WORD
p83
g31
I3
g32
Vbash.py
p84
I150
tp85
a(Vredirection -> LESS_LESS_MINUS WORD
p86
g31
I2
g32
Vbash.py
p87
I151
tp88
a(Vredirection -> NUMBER LESS_LESS_MINUS WORD
p89
g31
I3
g32
Vbash.py
p90
I152
tp91
a(Vredirection -> REDIR_WORD LESS_LESS_MINUS WORD
p92
g31
I3
g32
Vbash.py
p93
I153
tp94
a(Vredirection -> LESS_LESS_LESS WORD
p95
g31
I2
g32
Vbash.py
p96
I154
tp97
a(Vredirection -> NUMBER LESS_LESS_LESS WORD
p98
g31
I3
g32
Vbash.py
p99
I155
tp100
a(Vredirection -> REDIR_WORD LESS_LESS_LESS WORD
p101
g31
I3
g32
Vbash.py
p102
I156
tp103
a(Vredirection -> LESS_AND NUMBER
p104
g31
I2
g32
Vbash.py
p105
I157
tp106
a(Vredirection -> NUMBER LESS_AND NUMBER
p107
g31
I3
g32
Vbash.py
p108
I158
tp109
a(Vredirection -> REDIR_WORD LESS_AND NUMBER
p110
g31
I3
g32
Vbash.py
p111
I159
tp112
a(Vredirection -> GREATER_AND NUMBER
p113
g31
I2
g32
Vbash.py
p114
I160
tp115
a(Vredirection -> NUMBER GREATER_AND NUMBER
p116
g31
I3
g32
Vbash.py
p117
I161
tp118
a(Vredirection -> REDIR_WORD GREATER_AND NUMBER
p119
g31
I3
g32
Vbash.py
p120
I162
tp121
a(Vredirection -> LESS_AND WORD
p122
g31
I2
g32
Vbash.py
p123
I163
tp124
a(Vredirection -> NUMBER LESS_AND WORD
p125
g31
I3
g32
Vbash.py
p126
I164
tp127
a(Vredirection -> REDIR_WORD LESS_AND WORD
p128
g31
I3
g32
Vbash.py
p129
I165
tp130
a(Vredirection -> GREATER_AND WORD
p131
g31
I2
g32
Vbash.py
p132
I166
tp133
a(Vredirection -> NUMBER GREATER_AND WORD
p134
g31
I3
g32
Vbash.py
p135
I167
tp136
a(Vredirection -> REDIR_WORD GREATER_AND WORD
p137
g31
I3
g32
Vbash.py
p138
I168
tp139
a(Vredirection -> GREATER_AND -
p140
g31
I2
g32
Vbash.py
p141
I169
tp142
a(Vredirection -> NUMBER GREATER_AND -
p143
g31
I3
g32
Vbash.py
p144
I170
tp145
a(Vredirection -> REDIR_WORD GREATER_AND -
p146
g31
I3
g32
Vbash.py
p147
I171
tp148
a(Vredirection -> LESS_AND -
p149
g31
I2
g32
Vbash.py
p150
I172
tp151
a(Vredirection -> NUMBER LESS_AND -
p152
g31
I3
g32
Vbash.py
p153
I173
tp154
a(Vredirection -> REDIR_WORD LESS_AND -
p155
g31
I3
g32
Vbash.py
p156
I174
tp157
a(Vredirection -> AND_GREATER WORD
p158
g31
I2
g32
Vbash.py
p159
I175
tp160
a(Vredirection -> AND_GREATER_GREATER WORD
p161
g31
I2
g32
Vbash.py
p162
I176
tp163
a(Vsimple_command_element -> WORD
p164
Vsimple_command_element
p165
I1
Vp_simple_command_element_word
p166
Vbash.py
p167
I184
tp168
a(Vsimple_command_element -> assignment_word
p169
Vsimple_command_element
p170
I1
Vp_simple_command_element_assignment
p171
Vbash.py
p172
I192
tp173
a(Vsimple_command_element -> redirection
p174
Vsimple_command_element
p175
I1
Vp_simple_command_element_redirection
p176
Vbash.py
p177
I200
tp178
a(Vredirection_list -> redirection
p179
Vredirection_list
p180
I1
Vp_redirection_list
p181
Vbash.py
p182
I208
tp183
a(Vredirection_list -> redirection_list redirection
p184
g180
I2
g181
Vbash.py
p185
I209
tp186
a(Vsimple_command -> simple_command_element
p187
Vsimple_command
p188
I1
Vp_simple_command
p189
Vbash.py
p190
I217
tp191
a(Vsimple_command -> simple_command curly_off simple_command_element
p192
g188
I3
g189
Vbash.py
p193
I218
tp194
a(Vcommand -> simple_command curly_on
p195
Vcommand
p196
I2
Vp_command
p197
Vbash.py
p198
I226
tp199
a(Vcommand -> shell_command
p200
g196
I1
g197
Vbash.py
p201
I227
tp202
a(Vcommand -> shell_command redirection_list
p203
g196
I2
g197
Vbash.py
p204
I228
tp205
a(Vcommand -> function_def
p206
g196
I1
g197
Vbash.py
p207
I229
tp208
a(Vcommand -> coproc
p209
g196
I1
g197
Vbash.py
p210
I230
tp211
a(Vshell_command -> for_command
p212
Vshell_command
p213
I1
Vp_shell_commend
p214
Vbash.py
p215
I240
tp216
a(Vshell_command -> case_command
p217
g213
I1
g214
Vbash.py
p218
I241
tp219
a(Vshell_command -> WHILE compound_list DO compound_list DONE
p220
g213
I5
g214
Vbash.py
p221
I242
tp222
a(Vshell_command -> UNTIL compound_list DO compound_list DONE
p223
g213
I5
g214
Vbash.py
p224
I243
tp225
a(Vshell_command -> select_command
p226
g213
I1
g214
Vbash.py
p227
I244
tp228
a(Vshell_command -> if_command
p229
g213
I1
g214
Vbash.py
p230
I245
tp231
a(Vshell_command -> subshell
p232
g213
I1
g214
Vbash.py
p233
I246
tp234
a(Vshell_command -> group_command
p235
g213
I1
g214
Vbash.py
p236
I247
tp237
a(Vshell_command -> arith_command
p238
g213
I1
g214
Vbash.py
p239
I248
tp240
a(Vshell_command -> cond_command
p241
g213
I1
g214
Vbash.py
p242
I249
tp243
a(Vshell_command -> arith_for_command
p244
g213
I1
g214
Vbash.py
p245
I250
tp246
a(Vfor_command -> FOR WORD newline_list DO compound_list DONE
p247
Vfor_command
p248
I6
Vp_for_command
p249
Vbash.py
p250
I258
tp251
a(Vfor_command -> FOR WORD newline_list LBRACE compound_list }
p252
g248
I6
g249
Vbash.py
p253
I259
tp254
a(Vfor_command -> FOR WORD ; newline_list DO compound_list DONE
p255
g248
I7
g249
Vbash.py
p256
I260
tp257
a(Vfor_command -> FOR WORD ; newline_list LBRACE compound_list }
p258
g248
I7
g249
Vbash.py
p259
I261
tp260
a(Vfor_command -> FOR WORD newline_list IN word_list list_terminator newline_list DO compound_list DONE
p261
g248
I10
g249
Vbash.py
p262
I262
tp263
a(Vfor_command -> FOR WORD newline_list IN word_list list_terminator newline_list LBRACE compound_list }
p264
g248
I10
g249
Vbash.py
p265
I263
tp266
a(Vfor_command -> FOR WORD newline_list IN number_list list_terminator newline_list DO compound_list DONE
p267
g248
I10
g249
Vbash.py
p268
I264
tp269
a(Vfor_command -> FOR WORD newline_list IN number_list list_terminator newline_list LBRACE compound_list }
p270
g248
I10
g249
Vbash.py
p271
I265
tp272
a(Vfor_command -> FOR WORD newline_list IN list_terminator newline_list DO compound_list DONE
p273
g248
I9
g249
Vbash.py
p274
I266
tp275
a(Vfor_command -> FOR WORD newline_list IN list_terminator newline_list LBRACE compound_list }
p276
g248
I9
g249
Vbash.py
p277
I267
tp278
a(Varith_for_command -> FOR ARITH_FOR_EXPRS list_terminator newline_list DO compound_list DONE
p279
Varith_for_command
p280
I7
Vp_arith_for_command
p281
Vbash.py
p282
I275
tp283
a(Varith_for_command -> FOR ARITH_FOR_EXPRS list_terminator newline_list LBRACE compound_list }
p284
g280
I7
g281
Vbash.py
p285
I276
tp286
a(Varith_for_command -> FOR ARITH_FOR_EXPRS DO compound_list DONE
p287
g280
I5
g281
Vbash.py
p288
I277
tp289
a(Varith_for_command -> FOR ARITH_FOR_EXPRS LBRACE compound_list }
p290
g280
I5
g281
Vbash.py
p291
I278
tp292
a(Vselect_command -> SELECT WORD newline_list DO list DONE
p293
Vselect_command
p294
I6
Vp_select_command
p295
Vbash.py
p296
I286
tp297
a(Vselect_command -> SELECT WORD newline_list LBRACE list }
p298
g294
I6
g295
Vbash.py
p299
I287
tp300
a(Vselect_command -> SELECT WORD ; newline_list DO list DONE
p301
g294
I7
g295
Vbash.py
p302
I288
tp303
a(Vselect_command -> SELECT WORD ; newline_list LBRACE list }
p304
g294
I7
g295
Vbash.py
p305
I289
tp306
a(Vselect_command -> SELECT WORD newline_list IN word_list list_terminator newline_list DO list DONE
p307
g294
I10
g295
Vbash.py
p308
I290
tp309
a(Vselect_command -> SELECT WORD newline_list IN word_list list_terminator newline_list LBRACE list }
p310
g294
I10
g295
Vbash.py
p311
I291
tp312
a(Vcase_command -> CASE WORD newline_list IN newline_list ESAC
p313
Vcase_command
p314
I6
Vp_case_command
p315
Vbash.py
p316
I299
tp317
a(Vcase_command -> CASE WORD newline_list IN case_clause_sequence newline_list ESAC
p318
g314
I7
g315
Vbash.py
p319
I300
tp320
a(Vcase_command -> CASE WORD newline_list IN case_clause ESAC
p321
g314
I6
g315
Vbash.py
p322
I301
tp323
a(Vfunction_def -> WORD ( ) newline_list function_body
p324
Vfunction_def
p325
I5
Vp_function_def_without_keyword
p326
Vbash.py
p327
I309
tp328
a(Vfunction_def -> FUNCTION WORD ( ) newline_list function_body
p329
Vfunction_def
p330
I6
Vp_function_def_with_keyword_and_parens
p331
Vbash.py
p332
I317
tp333
a(Vfunction_def -> FUNCTION WORD newline_list function_body
p334
Vfunction_def
p335
I4
Vp_function_def
p336
Vbash.py
p337
I325
tp338
a(Vfunction_body -> shell_command
p339
Vfunction_body
p340
I1
Vp_function_body
p341
Vbash.py
p342
I333
tp343
a(Vfunction_body -> shell_command redirection_list
p344
g340
I2
g341
Vbash.py
p345
I334
tp346
a(Vsubshell -> ( compound_list )
p347
Vsubshell
p348
I3
Vp_subshell
p349
Vbash.py
p350
I342
tp351
a(Vcoproc -> COPROC shell_command
p352
Vcoproc
p353
I2
Vp_coproc
p354
Vbash.py
p355
I348
tp356
a(Vcoproc -> COPROC shell_command redirection_list
p357
g353
I3
g354
Vbash.py
p358
I349
tp359
a(Vcoproc -> COPROC WORD shell_command
p360
g353
I3
g354
Vbash.py
p361
I350
tp362
a(Vcoproc -> COPROC WORD shell_command redirection_list
p363
g353
I4
g354
Vbash.py
p364
I351
tp365
a(Vcoproc -> COPROC simple_command
p366
g353
I2
g354
Vbash.py
p367
I352
tp368
a(Vif_command -> IF compound_list THEN compound_list FI
p369
Vif_command
p370
I5
Vp_if_command
p371
Vbash.py
p372
I360
tp373
a(Vif_command -> IF compound_list THEN compound_list ELSE compound_list FI
p374
g370
I7
g371
Vbash.py
p375
I361
tp376
a(Vif_command -> IF compound_list THEN compound_list elif_clause FI
p377
g370
I6
g371
Vbash.py
p378
I362
tp379
a(Vgroup_command -> LBRACE compound_list }
p380
Vgroup_command
p381
I3
Vp_group_command
p382
Vbash.py
p383
I370
tp384
a(Varith_command -> ARITH_CMD
p385
Varith_command
p386
I1
Vp_arith_command
p387
Vbash.py
p388
I376
tp389
a(Vcond_command -> COND_START COND_CMD COND_END
p390
Vcond_command
p391
I3
Vp_cond_command
p392
Vbash.py
p393
I382
tp394
a(Velif_clause -> ELIF compound_list THEN compound_list
p395
Velif_clause
p396
I4
Vp_elif_clause
p397
Vbash.py
p398
I388
tp399
a(Velif_clause -> ELIF compound_list THEN compound_list ELSE compound_list
p400
g396
I6
g397
Vbash.py
p401
I389
tp402
a(Velif_clause -> ELIF compound_list THEN compound_list elif_clause
p403
g396
I5
g397
Vbash.py
p404
I390
tp405
a(Vcase_clause -> pattern_list
p406
Vcase_clause
p407
I1
Vp_case_clause
p408
Vbash.py
p409
I398
tp410
a(Vcase_clause -> case_clause_sequence pattern_list
p411
g407
I2
g408
Vbash.py
p412
I399
tp413
a(Vpattern_list -> newline_list pattern ) compound_list
p414
Vpattern_list
p415
I4
Vp_pattern_list
p416
Vbash.py
p417
I407
tp418
a(Vpattern_list -> newline_list pattern ) newline_list
p419
g415
I4
g416
Vbash.py
p420
I408
tp421
a(Vpattern_list -> newline_list ( pattern ) compound_list
p422
g415
I5
g416
Vbash.py
p423
I409
tp424
a(Vpattern_list -> newline_list ( pattern ) newline_list
p425
g415
I5
g416
Vbash.py
p426
I410
tp427
a(Vcase_clause_sequence -> pattern_list SEMI_SEMI
p428
Vcase_clause_sequence
p429
I2
Vp_case_clause_sequence
p430
Vbash.py
p431
I418
tp432
a(Vcase_clause_sequence -> case_clause_sequence pattern_list SEMI_SEMI
p433
g429
I3
g430
Vbash.py
p434
I419
tp435
a(Vcase_clause_sequence -> pattern_list SEMI_AND
p436
g429
I2
g430
Vbash.py
p437
I420
tp438
a(Vcase_clause_sequence -> case_clause_sequence pattern_list SEMI_AND
p439
g429
I3
g430
Vbash.py
p440
I421
tp441
a(Vcase_clause_sequence -> pattern_list SEMI_SEMI_AND
p442
g429
I2
g430
Vbash.py
p443
I422
tp444
a(Vcase_clause_sequence -> case_clause_sequence pattern_list SEMI_SEMI_AND
p445
g429
I3
g430
Vbash.py
p446
I423
tp447
a(Vpattern -> WORD
p448
Vpattern
p449
I1
Vp_pattern
p450
Vbash.py
p451
I431
tp452
a(Vpattern -> pattern | WORD
p453
g449
I3
g450
Vbash.py
p454
I432
tp455
a(Vlist -> newline_list list0
p456
Vlist
p457
I2
Vp_list
p458
Vbash.py
p459
I440
tp460
a(Vcompound_list -> list
p461
Vcompound_list
p462
I1
Vp_compound_list
p463
Vbash.py
p464
I446
tp465
a(Vcompound_list -> newline_list list1
p466
g462
I2
g463
Vbash.py
p467
I447
tp468
a(Vlist0 -> list1 NEWLINE newline_list
p469
Vlist0
p470
I3
Vp_list0
p471
Vbash.py
p472
I455
tp473
a(Vlist0 -> list1 & newline_list
p474
g470
I3
g471
Vbash.py
p475
I456
tp476
a(Vlist0 -> list1 ; newline_list
p477
g470
I3
g471
Vbash.py
p478
I457
tp479
a(Vlist1 -> list1 AND_AND newline_list list1
p480
Vlist1
p481
I4
Vp_list1
p482
Vbash.py
p483
I465
tp484
a(Vlist1 -> list1 OR_OR newline_list list1
p485
g481
I4
g482
Vbash.py
p486
I466
tp487
a(Vlist1 -> list1 & newline_list list1
p488
g481
I4
g482
Vbash.py
p489
I467
tp490
a(Vlist1 -> list1 ; newline_list list1
p491
g481
I4
g482
Vbash.py
p492
I468
tp493
a(Vlist1 -> list1 NEWLINE newline_list list1
p494
g481
I4
g482
Vbash.py
p495
I469
tp496
a(Vlist1 -> pipeline_command
p497
g481
I1
g482
Vbash.py
p498
I470
tp499
a(Vsimple_list_terminator -> NEWLINE
p500
Vsimple_list_terminator
p501
I1
Vp_simple_list_terminator
p502
Vbash.py
p503
I478
tp504
a(Vlist_terminator -> NEWLINE
p505
Vlist_terminator
p506
I1
Vp_list_terminator
p507
Vbash.py
p508
I484
tp509
a(Vlist_terminator -> ;
p510
g506
I1
g507
Vbash.py
p511
I485
tp512
a(Vnewline_list -> <empty>
p513
Vnewline_list
p514
I0
Vp_newline_list
p515
Vbash.py
p516
I493
tp517
a(Vnewline_list -> newline_list NEWLINE
p518
g514
I2
g515
Vbash.py
p519
I495
tp520
a(Vsimple_list -> simple_list1
p521
Vsimple_list
p522
I1
Vp_simple_list
p523
Vbash.py
p524
I502
tp525
a(Vsimple_list -> simple_list1 &
p526
g522
I2
g523
Vbash.py
p527
I503
tp528
a(Vsimple_list -> simple_list1 ;
p529
g522
I2
g523
Vbash.py
p530
I504
tp531
a(Vsimple_list1 -> simple_list1 AND_AND newline_list simple_list1
p532
Vsimple_list1
p533
I4
Vp_simple_list1_list_with_newlines
p534
Vbash.py
p535
I514
tp536
a(Vsimple_list1 -> simple_list1 OR_OR newline_list simple_list1
p537
g533
I4
g534
Vbash.py
p538
I515
tp539
a(Vsimple_list1 -> simple_list1 & simple_list1
p540
Vsimple_list1
p541
I3
Vp_simple_list1_list
p542
Vbash.py
p543
I525
tp544
a(Vsimple_list1 -> simple_list1 ; simple_list1
p545
g541
I3
g542
Vbash.py
p546
I526
tp547
a(Vsimple_list1 -> pipeline_command
p548
Vsimple_list1
p549
I1
Vp_simple_list1_command
p550
Vbash.py
p551
I536
tp552
a(Vpipeline_command -> pipeline
p553
Vpipeline_command
p554
I1
Vp_pipeline_command_unmodified
p555
Vbash.py
p556
I544
tp557
a(Vpipeline_command -> BANG pipeline_command
p558
Vpipeline_command
p559
I2
Vp_pipeline_command_modified
p560
Vbash.py
p561
I552
tp562
a(Vpipeline_command -> timespec pipeline_command
p563
g559
I2
g560
Vbash.py
p564
I553
tp565
a(Vpipeline_command -> timespec list_terminator
p566
g559
I2
g560
Vbash.py
p567
I554
tp568
a(Vpipeline_command -> BANG list_terminator
p569
g559
I2
g560
Vbash.py
p570
I555
tp571
a(Vpipeline -> pipeline | newline_list pipeline
p572
Vpipeline
p573
I4
Vp_pipeline_with_pipe
p574
Vbash.py
p575
I565
tp576
a(Vpipeline -> pipeline BAR_AND newline_list pipeline
p577
g573
I4
g574
Vbash.py
p578
I566
tp579
a(Vpipeline -> command
p580
Vpipeline
p581
I1
Vp_pipeline_with_command
p582
Vbash.py
p583
I576
tp584
a(Vtimespec -> TIME
p585
Vtimespec
p586
I1
Vp_timespec
p587
Vbash.py
p588
I584
tp589
a(Vtimespec -> TIME TIMEOPT
p590
g586
I2
g587
Vbash.py
p591
I585
tp592
a(Vtimespec -> TIME TIMEOPT TIMEIGN
p593
g586
I3
g587
Vbash.py
p594
I586
tp595
a(Vnumber_list -> NUMBER
p596
Vnumber_list
p597
I1
Vp_number_list_number
p598
Vbash.py
p599
I598
tp600
a(Vnumber_list -> number_list newline_list NUMBER
p601
Vnumber_list
p602
I3
Vp_number_list_list
p603
Vbash.py
p604
I606
tp605
a(Vassignment_word -> WORD = assignment_off ( newline_list word_list newline_list ) assignment_on
p606
Vassignment_word
p607
I9
Vp_assignment_word_array
p608
Vbash.py
p609
I614
tp610
a(Vassignment_word -> WORD = NUMBER
p611
Vassignment_word
p612
I3
Vp_assignment_word_number
p613
Vbash.py
p614
I627
tp615
a(Vassignment_word -> WORD = assignment_off WORD assignment_on
p616
Vassignment_word
p617
I5
Vp_assignment_word_word
p618
Vbash.py
p619
I640
tp620
a(Vassignment_off -> <empty>
p621
Vassignment_off
p622
I0
Vp_assignment_off
p623
Vbash.py
p624
I659
tp625
a(Vassignment_on -> <empty>
p626
Vassignment_on
p627
I0
Vp_assignment_on
p628
Vbash.py
p629
I664
tp630
a(Vsimple_command_element -> NUMBER
p631
Vsimple_command_element
p632
I1
Vp_simple_command_element_number
p633
Vbash.py
p634
I669
tp635
a(Vcurly_off -> <empty>
p636
Vcurly_off
p637
I0
Vp_curly_off
p638
Vbash.py
p639
I677
tp640
a(Vcurly_on -> <empty>
p641
Vcurly_on
p642
I0
Vp_curly_on
p643
Vbash.py
p644
I682
tp645
a.
